(dp1
S'output'
p2
S"<type 'exceptions.NameError'> name 'auth_table' is not defined"
p3
sS'layer'
p4
S'C:\\Users\\asus\\Downloads\\web2py_win\\web2py\\applications\\welcome\\models\\db.py'
p5
sS'code'
p6
S'<code object <module> at 04B1FB60, file "C:\\Users\\asus\\Downloads\\web2py_win\\web2py\\applications\\welcome\\models\\db.py", line 8>'
p7
sS'snapshot'
p8
(dp9
S'exception'
p10
(dp11
S'__getslice__'
p12
S"<method-wrapper '__getslice__' of exceptions.NameError object>"
p13
sS'__str__'
p14
S"<method-wrapper '__str__' of exceptions.NameError object>"
p15
sS'__reduce__'
p16
S'<built-in method __reduce__ of exceptions.NameError object>'
p17
sS'__dict__'
p18
S'{}'
p19
sS'message'
p20
S'"name \'auth_table\' is not defined"'
p21
sS'__sizeof__'
p22
S'<built-in method __sizeof__ of exceptions.NameError object>'
p23
sS'__init__'
p24
S"<method-wrapper '__init__' of exceptions.NameError object>"
p25
sS'__setattr__'
p26
S"<method-wrapper '__setattr__' of exceptions.NameError object>"
p27
sS'__reduce_ex__'
p28
S'<built-in method __reduce_ex__ of exceptions.NameError object>'
p29
sS'__new__'
p30
S'<built-in method __new__ of type object>'
p31
sS'__format__'
p32
S'<built-in method __format__ of exceptions.NameError object>'
p33
sS'__class__'
p34
S"<type 'exceptions.NameError'>"
p35
sS'__doc__'
p36
S"'Name not found globally.'"
p37
sS'__getitem__'
p38
S"<method-wrapper '__getitem__' of exceptions.NameError object>"
p39
sS'__setstate__'
p40
S'<built-in method __setstate__ of exceptions.NameError object>'
p41
sS'__getattribute__'
p42
S"<method-wrapper '__getattribute__' of exceptions.NameError object>"
p43
sS'args'
p44
S'("name \'auth_table\' is not defined",)'
p45
sS'__subclasshook__'
p46
S'<built-in method __subclasshook__ of type object>'
p47
sS'__unicode__'
p48
S'<built-in method __unicode__ of exceptions.NameError object>'
p49
sS'__delattr__'
p50
S"<method-wrapper '__delattr__' of exceptions.NameError object>"
p51
sS'__repr__'
p52
S"<method-wrapper '__repr__' of exceptions.NameError object>"
p53
sS'__hash__'
p54
S"<method-wrapper '__hash__' of exceptions.NameError object>"
p55
ssS'evalue'
p56
S"name 'auth_table' is not defined"
p57
sS'request'
p58
cgluon.html
XML_unpickle
p59
(S's8\\\x00\x00<div><table><tr><td style="font-weight:bold;vertical-align:top;">ajax</td><td style="vertical-align:top;">:</td><td><div>False</div></td></tr><tr><td style="font-weight:bold;vertical-align:top;">application</td><td style="vertical-align:top;">:</td><td><div>welcome</div></td></tr><tr><td style="font-weight:bold;vertical-align:top;">args</td><td style="vertical-align:top;">:</td><td><div><table><tr><td><div>register</div></td></tr></table></div></td></tr><tr><td style="font-weight:bold;vertical-align:top;">cid</td><td style="vertical-align:top;">:</td><td><div>None</div></td></tr><tr><td style="font-weight:bold;vertical-align:top;">client</td><td style="vertical-align:top;">:</td><td><div>127.0.0.1</div></td></tr><tr><td style="font-weight:bold;vertical-align:top;">controller</td><td style="vertical-align:top;">:</td><td><div>default</div></td></tr><tr><td style="font-weight:bold;vertical-align:top;">cookies</td><td style="vertical-align:top;">:</td><td><div><table><tr><td style="font-weight:bold;vertical-align:top;">session_id_admin</td><td style="vertical-align:top;">:</td><td><div>127.0.0.1-59775735-6b3d-418d-bce0-a63f9db343b2<table><tr><td style="font-weight:bold;vertical-align:top;">comment</td><td style="vertical-align:top;">:</td><td><div></div></td></tr><tr><td style="font-weight:bold;vertical-align:top;">domain</td><td style="vertical-align:top;">:</td><td><div></div></td></tr><tr><td style="font-weight:bold;vertical-align:top;">expires</td><td style="vertical-align:top;">:</td><td><div></div></td></tr><tr><td style="font-weight:bold;vertical-align:top;">httponly</td><td style="vertical-align:top;">:</td><td><div></div></td></tr><tr><td style="font-weight:bold;vertical-align:top;">max-age</td><td style="vertical-align:top;">:</td><td><div></div></td></tr><tr><td style="font-weight:bold;vertical-align:top;">path</td><td style="vertical-align:top;">:</td><td><div></div></td></tr><tr><td style="font-weight:bold;vertical-align:top;">secure</td><td style="vertical-align:top;">:</td><td><div></div></td></tr><tr><td style="font-weight:bold;vertical-align:top;">version</td><td style="vertical-align:top;">:</td><td><div></div></td></tr></table></div></td></tr><tr><td style="font-weight:bold;vertical-align:top;">session_id_welcome</td><td style="vertical-align:top;">:</td><td><div>127.0.0.1-8b64f155-8062-42c4-a6c2-7f0ee18a421d<table><tr><td style="font-weight:bold;vertical-align:top;">comment</td><td style="vertical-align:top;">:</td><td><div></div></td></tr><tr><td style="font-weight:bold;vertical-align:top;">domain</td><td style="vertical-align:top;">:</td><td><div></div></td></tr><tr><td style="font-weight:bold;vertical-align:top;">expires</td><td style="vertical-align:top;">:</td><td><div></div></td></tr><tr><td style="font-weight:bold;vertical-align:top;">httponly</td><td style="vertical-align:top;">:</td><td><div></div></td></tr><tr><td style="font-weight:bold;vertical-align:top;">max-age</td><td style="vertical-align:top;">:</td><td><div></div></td></tr><tr><td style="font-weight:bold;vertical-align:top;">path</td><td style="vertical-align:top;">:</td><td><div></div></td></tr><tr><td style="font-weight:bold;vertical-align:top;">secure</td><td style="vertical-align:top;">:</td><td><div></div></td></tr><tr><td style="font-weight:bold;vertical-align:top;">version</td><td style="vertical-align:top;">:</td><td><div></div></td></tr></table></div></td></tr></table></div></td></tr><tr><td style="font-weight:bold;vertical-align:top;">env</td><td style="vertical-align:top;">:</td><td><div><table><tr><td style="font-weight:bold;vertical-align:top;">HTTP_ACCEPT</td><td style="vertical-align:top;">:</td><td><div>text/html,application/xhtml+xml,application/xml;q=0.9,image/webp,image/apng,*/*;q=0.8</div></td></tr><tr><td style="font-weight:bold;vertical-align:top;">HTTP_ACCEPT_ENCODING</td><td style="vertical-align:top;">:</td><td><div>gzip, deflate, br</div></td></tr><tr><td style="font-weight:bold;vertical-align:top;">HTTP_ACCEPT_LANGUAGE</td><td style="vertical-align:top;">:</td><td><div>th-TH,th;q=0.8</div></td></tr><tr><td style="font-weight:bold;vertical-align:top;">HTTP_CACHE_CONTROL</td><td style="vertical-align:top;">:</td><td><div>max-age=0</div></td></tr><tr><td style="font-weight:bold;vertical-align:top;">HTTP_CONNECTION</td><td style="vertical-align:top;">:</td><td><div>keep-alive</div></td></tr><tr><td style="font-weight:bold;vertical-align:top;">HTTP_COOKIE</td><td style="vertical-align:top;">:</td><td><div>__utmt_UA-101445141-1=1; __utma=96992031.441855095.1507809625.1507978621.1507982961.5; __utmb=96992031.27.10.1507982961; __utmc=96992031; __utmz=96992031.1507809625.1.1.utmcsr=(direct)|utmccn=(direct)|utmcmd=(none); session_id_welcome=127.0.0.1-8b64f155-8062-42c4-a6c2-7f0ee18a421d; session_id_admin=127.0.0.1-59775735-6b3d-418d-bce0-a63f9db343b2</div></td></tr><tr><td style="font-weight:bold;vertical-align:top;">HTTP_HOST</td><td style="vertical-align:top;">:</td><td><div>127.0.0.1:8000</div></td></tr><tr><td style="font-weight:bold;vertical-align:top;">HTTP_REFERER</td><td style="vertical-align:top;">:</td><td><div>http://127.0.0.1:8000/welcome/default/index</div></td></tr><tr><td style="font-weight:bold;vertical-align:top;">HTTP_UPGRADE_INSECURE_REQUESTS</td><td style="vertical-align:top;">:</td><td><div>1</div></td></tr><tr><td style="font-weight:bold;vertical-align:top;">HTTP_USER_AGENT</td><td style="vertical-align:top;">:</td><td><div>Mozilla/5.0 (Windows NT 10.0; Win64; x64) AppleWebKit/537.36 (KHTML, like Gecko) Chrome/61.0.3163.100 Safari/537.36</div></td></tr><tr><td style="font-weight:bold;vertical-align:top;">PATH_INFO</td><td style="vertical-align:top;">:</td><td><div>/welcome/default/user/register</div></td></tr><tr><td style="font-weight:bold;vertical-align:top;">QUERY_STRING</td><td style="vertical-align:top;">:</td><td><div>_next=/welcome/default/index</div></td></tr><tr><td style="font-weight:bold;vertical-align:top;">REMOTE_ADDR</td><td style="vertical-align:top;">:</td><td><div>127.0.0.1</div></td></tr><tr><td style="font-weight:bold;vertical-align:top;">REMOTE_PORT</td><td style="vertical-align:top;">:</td><td><div>64459</div></td></tr><tr><td style="font-weight:bold;vertical-align:top;">REQUEST_METHOD</td><td style="vertical-align:top;">:</td><td><div>GET</div></td></tr><tr><td style="font-weight:bold;vertical-align:top;">SCRIPT_NAME</td><td style="vertical-align:top;">:</td><td><div></div></td></tr><tr><td style="font-weight:bold;vertical-align:top;">SERVER_NAME</td><td style="vertical-align:top;">:</td><td><div>LWB</div></td></tr><tr><td style="font-weight:bold;vertical-align:top;">SERVER_PORT</td><td style="vertical-align:top;">:</td><td><div>8000</div></td></tr><tr><td style="font-weight:bold;vertical-align:top;">SERVER_PROTOCOL</td><td style="vertical-align:top;">:</td><td><div>HTTP/1.1</div></td></tr><tr><td style="font-weight:bold;vertical-align:top;">SERVER_SOFTWARE</td><td style="vertical-align:top;">:</td><td><div>Rocket 1.2.6</div></td></tr><tr><td style="font-weight:bold;vertical-align:top;">app_folders</td><td style="vertical-align:top;">:</td><td><div>set([&#x27;C:\\\\Users\\\\asus\\\\Downloads\\\\web2py_win\\\\web2py\\\\applications\\\\admin\\\\&#x27;, &#x27;C:\\\\Users\\\\asus\\\\Downloads\\\\web2py_win\\\\web2py\\\\applications\\\\welcome\\\\&#x27;])</div></td></tr><tr><td style="font-weight:bold;vertical-align:top;">applications_parent</td><td style="vertical-align:top;">:</td><td><div>C:\\Users\\asus\\Downloads\\web2py_win\\web2py</div></td></tr><tr><td style="font-weight:bold;vertical-align:top;">cmd_args</td><td style="vertical-align:top;">:</td><td><div><table></table></div></td></tr><tr><td style="font-weight:bold;vertical-align:top;">cmd_options</td><td style="vertical-align:top;">:</td><td><div>&lt;Values at 0x30f2a58: {&#x27;verbose&#x27;: False, &#x27;ip&#x27;: &#x27;127.0.0.1&#x27;, &#x27;debuglevel&#x27;: 30, &#x27;with_scheduler&#x27;: False, &#x27;shutdown_timeout&#x27;: 5, &#x27;taskbar&#x27;: False, &#x27;with_coverage&#x27;: False, &#x27;pid_filename&#x27;: &#x27;httpserver.pid&#x27;, &#x27;maxthreads&#x27;: None, &#x27;softcron&#x27;: False, &#x27;server_name&#x27;: &#x27;LWB&#x27;, &#x27;bpython&#x27;: False, &#x27;nogui&#x27;: False, &#x27;port&#x27;: 8000, &#x27;print_errors&#x27;: False, &#x27;extcron&#x27;: False, &#x27;runcron&#x27;: False, &#x27;run_system_tests&#x27;: False, &#x27;test&#x27;: None, &#x27;folder&#x27;: &#x27;C:\\\\Users\\\\asus\\\\Downloads\\\\web2py_win\\\\web2py&#x27;, &#x27;config&#x27;: &#x27;&#x27;, &#x27;minthreads&#x27;: None, &#x27;shell&#x27;: None, &#x27;run&#x27;: &#x27;&#x27;, &#x27;log_filename&#x27;: &#x27;httpserver.log&#x27;, &#x27;profiler_dir&#x27;: None, &#x27;args&#x27;: [&#x27;&#x27;], &#x27;socket_timeout&#x27;: 5, &#x27;ssl_ca_certificate&#x27;: None, &#x27;scheduler&#x27;: None, &#x27;interfaces&#x27;: None, &#x27;ssl_private_key&#x27;: &#x27;&#x27;, &#x27;gae&#x27;: None, &#x27;password&#x27;: &#x27;******&#x27;, &#x27;request_queue_size&#x27;: 5, &#x27;ssl_certificate&#x27;: &#x27;&#x27;, &#x27;cronjob&#x27;: False, &#x27;numthreads&#x27;: None, &#x27;quiet&#x27;: False, &#x27;import_models&#x27;: False, &#x27;timeout&#x27;: 10, &#x27;plain&#x27;: False, &#x27;nobanner&#x27;: False}&gt;</div></td></tr><tr><td style="font-weight:bold;vertical-align:top;">db_sessions</td><td style="vertical-align:top;">:</td><td><div>set([])</div></td></tr><tr><td style="font-weight:bold;vertical-align:top;">debugging</td><td style="vertical-align:top;">:</td><td><div>True</div></td></tr><tr><td style="font-weight:bold;vertical-align:top;">gluon_parent</td><td style="vertical-align:top;">:</td><td><div>C:\\Users\\asus\\Downloads\\web2py_win\\web2py</div></td></tr><tr><td style="font-weight:bold;vertical-align:top;">http_accept</td><td style="vertical-align:top;">:</td><td><div>text/html,application/xhtml+xml,application/xml;q=0.9,image/webp,image/apng,*/*;q=0.8</div></td></tr><tr><td style="font-weight:bold;vertical-align:top;">http_accept_encoding</td><td style="vertical-align:top;">:</td><td><div>gzip, deflate, br</div></td></tr><tr><td style="font-weight:bold;vertical-align:top;">http_accept_language</td><td style="vertical-align:top;">:</td><td><div>th-TH,th;q=0.8</div></td></tr><tr><td style="font-weight:bold;vertical-align:top;">http_cache_control</td><td style="vertical-align:top;">:</td><td><div>max-age=0</div></td></tr><tr><td style="font-weight:bold;vertical-align:top;">http_connection</td><td style="vertical-align:top;">:</td><td><div>keep-alive</div></td></tr><tr><td style="font-weight:bold;vertical-align:top;">http_cookie</td><td style="vertical-align:top;">:</td><td><div>__utmt_UA-101445141-1=1; __utma=96992031.441855095.1507809625.1507978621.1507982961.5; __utmb=96992031.27.10.1507982961; __utmc=96992031; __utmz=96992031.1507809625.1.1.utmcsr=(direct)|utmccn=(direct)|utmcmd=(none); session_id_welcome=127.0.0.1-8b64f155-8062-42c4-a6c2-7f0ee18a421d; session_id_admin=127.0.0.1-59775735-6b3d-418d-bce0-a63f9db343b2</div></td></tr><tr><td style="font-weight:bold;vertical-align:top;">http_host</td><td style="vertical-align:top;">:</td><td><div>127.0.0.1:8000</div></td></tr><tr><td style="font-weight:bold;vertical-align:top;">http_referer</td><td style="vertical-align:top;">:</td><td><div>http://127.0.0.1:8000/welcome/default/index</div></td></tr><tr><td style="font-weight:bold;vertical-align:top;">http_upgrade_insecure_requests</td><td style="vertical-align:top;">:</td><td><div>1</div></td></tr><tr><td style="font-weight:bold;vertical-align:top;">http_user_agent</td><td style="vertical-align:top;">:</td><td><div>Mozilla/5.0 (Windows NT 10.0; Win64; x64) AppleWebKit/537.36 (KHTML, like Gecko) Chrome/61.0.3163.100 Safari/537.36</div></td></tr><tr><td style="font-weight:bold;vertical-align:top;">is_jython</td><td style="vertical-align:top;">:</td><td><div>False</div></td></tr><tr><td style="font-weight:bold;vertical-align:top;">is_py2</td><td style="vertical-align:top;">:</td><td><div>True</div></td></tr><tr><td style="font-weight:bold;vertical-align:top;">is_pypy</td><td style="vertical-align:top;">:</td><td><div>False</div></td></tr><tr><td style="font-weight:bold;vertical-align:top;">is_source</td><td style="vertical-align:top;">:</td><td><div>False</div></td></tr><tr><td style="font-weight:bold;vertical-align:top;">local_hosts</td><td style="vertical-align:top;">:</td><td><div><table><tr><td><div>2001:0:9d38:90d7:389f:d6:f130:9924</div></td></tr><tr><td><div>fe80::389f:d6:f130:9924%6</div></td></tr><tr><td><div>::ffff:127.0.0.1</div></td></tr><tr><td><div>::1</div></td></tr><tr><td><div>fe80::fce5:662e:2b23:e76b%12</div></td></tr><tr><td><div>192.168.2.178</div></td></tr><tr><td><div>LWB</div></td></tr><tr><td><div>127.0.0.1</div></td></tr></table></div></td></tr><tr><td style="font-weight:bold;vertical-align:top;">path_info</td><td style="vertical-align:top;">:</td><td><div>/welcome/default/user/register</div></td></tr><tr><td style="font-weight:bold;vertical-align:top;">query_string</td><td style="vertical-align:top;">:</td><td><div>_next=/welcome/default/index</div></td></tr><tr><td style="font-weight:bold;vertical-align:top;">remote_addr</td><td style="vertical-align:top;">:</td><td><div>127.0.0.1</div></td></tr><tr><td style="font-weight:bold;vertical-align:top;">remote_port</td><td style="vertical-align:top;">:</td><td><div>64459</div></td></tr><tr><td style="font-weight:bold;vertical-align:top;">request_method</td><td style="vertical-align:top;">:</td><td><div>GET</div></td></tr><tr><td style="font-weight:bold;vertical-align:top;">request_uri</td><td style="vertical-align:top;">:</td><td><div>/welcome/default/user/register?_next=/welcome/default/index</div></td></tr><tr><td style="font-weight:bold;vertical-align:top;">script_name</td><td style="vertical-align:top;">:</td><td><div></div></td></tr><tr><td style="font-weight:bold;vertical-align:top;">server_name</td><td style="vertical-align:top;">:</td><td><div>LWB</div></td></tr><tr><td style="font-weight:bold;vertical-align:top;">server_port</td><td style="vertical-align:top;">:</td><td><div>8000</div></td></tr><tr><td style="font-weight:bold;vertical-align:top;">server_protocol</td><td style="vertical-align:top;">:</td><td><div>HTTP/1.1</div></td></tr><tr><td style="font-weight:bold;vertical-align:top;">server_software</td><td style="vertical-align:top;">:</td><td><div>Rocket 1.2.6</div></td></tr><tr><td style="font-weight:bold;vertical-align:top;">web2py_path</td><td style="vertical-align:top;">:</td><td><div>C:\\Users\\asus\\Downloads\\web2py_win\\web2py</div></td></tr><tr><td style="font-weight:bold;vertical-align:top;">web2py_version</td><td style="vertical-align:top;">:</td><td><div>2.15.4-stable+timestamp.2017.09.02.04.02.22</div></td></tr><tr><td style="font-weight:bold;vertical-align:top;">wsgi.errors</td><td style="vertical-align:top;">:</td><td><div>&lt;open file &#x27;&lt;stderr&gt;&#x27;, mode &#x27;w&#x27; at 0x023CD0D0&gt;</div></td></tr><tr><td style="font-weight:bold;vertical-align:top;">wsgi.file_wrapper</td><td style="vertical-align:top;">:</td><td><div>&lt;class wsgiref.util.FileWrapper at 0x030B4998&gt;</div></td></tr><tr><td style="font-weight:bold;vertical-align:top;">wsgi.input</td><td style="vertical-align:top;">:</td><td><div>&lt;socket._fileobject object at 0x046B5B30&gt;</div></td></tr><tr><td style="font-weight:bold;vertical-align:top;">wsgi.multiprocess</td><td style="vertical-align:top;">:</td><td><div>False</div></td></tr><tr><td style="font-weight:bold;vertical-align:top;">wsgi.multithread</td><td style="vertical-align:top;">:</td><td><div>True</div></td></tr><tr><td style="font-weight:bold;vertical-align:top;">wsgi.run_once</td><td style="vertical-align:top;">:</td><td><div>False</div></td></tr><tr><td style="font-weight:bold;vertical-align:top;">wsgi.url_scheme</td><td style="vertical-align:top;">:</td><td><div>http</div></td></tr><tr><td style="font-weight:bold;vertical-align:top;">wsgi.version</td><td style="vertical-align:top;">:</td><td><div><table><tr><td><div>1</div></td></tr><tr><td><div>0</div></td></tr></table></div></td></tr><tr><td style="font-weight:bold;vertical-align:top;">wsgi_errors</td><td style="vertical-align:top;">:</td><td><div>&lt;open file &#x27;&lt;stderr&gt;&#x27;, mode &#x27;w&#x27; at 0x023CD0D0&gt;</div></td></tr><tr><td style="font-weight:bold;vertical-align:top;">wsgi_file_wrapper</td><td style="vertical-align:top;">:</td><td><div>&lt;class wsgiref.util.FileWrapper at 0x030B4998&gt;</div></td></tr><tr><td style="font-weight:bold;vertical-align:top;">wsgi_input</td><td style="vertical-align:top;">:</td><td><div>&lt;socket._fileobject object at 0x046B5B30&gt;</div></td></tr><tr><td style="font-weight:bold;vertical-align:top;">wsgi_multiprocess</td><td style="vertical-align:top;">:</td><td><div>False</div></td></tr><tr><td style="font-weight:bold;vertical-align:top;">wsgi_multithread</td><td style="vertical-align:top;">:</td><td><div>True</div></td></tr><tr><td style="font-weight:bold;vertical-align:top;">wsgi_run_once</td><td style="vertical-align:top;">:</td><td><div>False</div></td></tr><tr><td style="font-weight:bold;vertical-align:top;">wsgi_url_scheme</td><td style="vertical-align:top;">:</td><td><div>http</div></td></tr><tr><td style="font-weight:bold;vertical-align:top;">wsgi_version</td><td style="vertical-align:top;">:</td><td><div><table><tr><td><div>1</div></td></tr><tr><td><div>0</div></td></tr></table></div></td></tr></table></div></td></tr><tr><td style="font-weight:bold;vertical-align:top;">extension</td><td style="vertical-align:top;">:</td><td><div>html</div></td></tr><tr><td style="font-weight:bold;vertical-align:top;">folder</td><td style="vertical-align:top;">:</td><td><div>C:\\Users\\asus\\Downloads\\web2py_win\\web2py\\applications\\welcome\\</div></td></tr><tr><td style="font-weight:bold;vertical-align:top;">function</td><td style="vertical-align:top;">:</td><td><div>user</div></td></tr><tr><td style="font-weight:bold;vertical-align:top;">global_settings</td><td style="vertical-align:top;">:</td><td><div><table><tr><td style="font-weight:bold;vertical-align:top;">app_folders</td><td style="vertical-align:top;">:</td><td><div>set([&#x27;C:\\\\Users\\\\asus\\\\Downloads\\\\web2py_win\\\\web2py\\\\applications\\\\admin\\\\&#x27;, &#x27;C:\\\\Users\\\\asus\\\\Downloads\\\\web2py_win\\\\web2py\\\\applications\\\\welcome\\\\&#x27;])</div></td></tr><tr><td style="font-weight:bold;vertical-align:top;">applications_parent</td><td style="vertical-align:top;">:</td><td><div>C:\\Users\\asus\\Downloads\\web2py_win\\web2py</div></td></tr><tr><td style="font-weight:bold;vertical-align:top;">cmd_args</td><td style="vertical-align:top;">:</td><td><div><table></table></div></td></tr><tr><td style="font-weight:bold;vertical-align:top;">cmd_options</td><td style="vertical-align:top;">:</td><td><div>&lt;Values at 0x30f2a58: {&#x27;verbose&#x27;: False, &#x27;ip&#x27;: &#x27;127.0.0.1&#x27;, &#x27;debuglevel&#x27;: 30, &#x27;with_scheduler&#x27;: False, &#x27;shutdown_timeout&#x27;: 5, &#x27;taskbar&#x27;: False, &#x27;with_coverage&#x27;: False, &#x27;pid_filename&#x27;: &#x27;httpserver.pid&#x27;, &#x27;maxthreads&#x27;: None, &#x27;softcron&#x27;: False, &#x27;server_name&#x27;: &#x27;LWB&#x27;, &#x27;bpython&#x27;: False, &#x27;nogui&#x27;: False, &#x27;port&#x27;: 8000, &#x27;print_errors&#x27;: False, &#x27;extcron&#x27;: False, &#x27;runcron&#x27;: False, &#x27;run_system_tests&#x27;: False, &#x27;test&#x27;: None, &#x27;folder&#x27;: &#x27;C:\\\\Users\\\\asus\\\\Downloads\\\\web2py_win\\\\web2py&#x27;, &#x27;config&#x27;: &#x27;&#x27;, &#x27;minthreads&#x27;: None, &#x27;shell&#x27;: None, &#x27;run&#x27;: &#x27;&#x27;, &#x27;log_filename&#x27;: &#x27;httpserver.log&#x27;, &#x27;profiler_dir&#x27;: None, &#x27;args&#x27;: [&#x27;&#x27;], &#x27;socket_timeout&#x27;: 5, &#x27;ssl_ca_certificate&#x27;: None, &#x27;scheduler&#x27;: None, &#x27;interfaces&#x27;: None, &#x27;ssl_private_key&#x27;: &#x27;&#x27;, &#x27;gae&#x27;: None, &#x27;password&#x27;: &#x27;******&#x27;, &#x27;request_queue_size&#x27;: 5, &#x27;ssl_certificate&#x27;: &#x27;&#x27;, &#x27;cronjob&#x27;: False, &#x27;numthreads&#x27;: None, &#x27;quiet&#x27;: False, &#x27;import_models&#x27;: False, &#x27;timeout&#x27;: 10, &#x27;plain&#x27;: False, &#x27;nobanner&#x27;: False}&gt;</div></td></tr><tr><td style="font-weight:bold;vertical-align:top;">db_sessions</td><td style="vertical-align:top;">:</td><td><div>set([])</div></td></tr><tr><td style="font-weight:bold;vertical-align:top;">debugging</td><td style="vertical-align:top;">:</td><td><div>True</div></td></tr><tr><td style="font-weight:bold;vertical-align:top;">gluon_parent</td><td style="vertical-align:top;">:</td><td><div>C:\\Users\\asus\\Downloads\\web2py_win\\web2py</div></td></tr><tr><td style="font-weight:bold;vertical-align:top;">is_jython</td><td style="vertical-align:top;">:</td><td><div>False</div></td></tr><tr><td style="font-weight:bold;vertical-align:top;">is_py2</td><td style="vertical-align:top;">:</td><td><div>True</div></td></tr><tr><td style="font-weight:bold;vertical-align:top;">is_pypy</td><td style="vertical-align:top;">:</td><td><div>False</div></td></tr><tr><td style="font-weight:bold;vertical-align:top;">is_source</td><td style="vertical-align:top;">:</td><td><div>False</div></td></tr><tr><td style="font-weight:bold;vertical-align:top;">local_hosts</td><td style="vertical-align:top;">:</td><td><div><table><tr><td><div>2001:0:9d38:90d7:389f:d6:f130:9924</div></td></tr><tr><td><div>fe80::389f:d6:f130:9924%6</div></td></tr><tr><td><div>::ffff:127.0.0.1</div></td></tr><tr><td><div>::1</div></td></tr><tr><td><div>fe80::fce5:662e:2b23:e76b%12</div></td></tr><tr><td><div>192.168.2.178</div></td></tr><tr><td><div>LWB</div></td></tr><tr><td><div>127.0.0.1</div></td></tr></table></div></td></tr><tr><td style="font-weight:bold;vertical-align:top;">web2py_version</td><td style="vertical-align:top;">:</td><td><div>2.15.4-stable+timestamp.2017.09.02.04.02.22</div></td></tr></table></div></td></tr><tr><td style="font-weight:bold;vertical-align:top;">is_https</td><td style="vertical-align:top;">:</td><td><div>False</div></td></tr><tr><td style="font-weight:bold;vertical-align:top;">is_local</td><td style="vertical-align:top;">:</td><td><div>True</div></td></tr><tr><td style="font-weight:bold;vertical-align:top;">is_restful</td><td style="vertical-align:top;">:</td><td><div>False</div></td></tr><tr><td style="font-weight:bold;vertical-align:top;">is_scheduler</td><td style="vertical-align:top;">:</td><td><div>False</div></td></tr><tr><td style="font-weight:bold;vertical-align:top;">is_shell</td><td style="vertical-align:top;">:</td><td><div>False</div></td></tr><tr><td style="font-weight:bold;vertical-align:top;">now</td><td style="vertical-align:top;">:</td><td><div>datetime.datetime(2017, 10, 14, 19, 29, 11, 922000)</div></td></tr><tr><td style="font-weight:bold;vertical-align:top;">raw_args</td><td style="vertical-align:top;">:</td><td><div>register</div></td></tr><tr><td style="font-weight:bold;vertical-align:top;">raw_extension</td><td style="vertical-align:top;">:</td><td><div>None</div></td></tr><tr><td style="font-weight:bold;vertical-align:top;">url</td><td style="vertical-align:top;">:</td><td><div>/welcome/default/user/register</div></td></tr><tr><td style="font-weight:bold;vertical-align:top;">utcnow</td><td style="vertical-align:top;">:</td><td><div>datetime.datetime(2017, 10, 14, 12, 29, 11, 922000)</div></td></tr><tr><td style="font-weight:bold;vertical-align:top;">wsgi</td><td style="vertical-align:top;">:</td><td><div>&lt;gluon.main.LazyWSGI object at 0x09FF85D0&gt;</div></td></tr></table></div>'
tRp60
sS'frames'
p61
(lp62
(dp63
S'file'
p64
S'C:\\Users\\asus\\Downloads\\web2py_win\\web2py\\gluon\\restricted.py'
p65
sS'dump'
p66
(dp67
S'environment'
p68
S"{'A': <class 'gluon.html.A'>, 'ANY_OF': <class 'gluon.validators.ANY_OF'>, 'ASSIGNJS': <function ASSIGNJS>, 'AppConfig': <function AppConfig>, 'Auth': <class 'gluon.tools.Auth'>, 'B': <class 'gluon.html.B'>, 'BEAUTIFY': <class 'gluon.html.BEAUTIFY'>, 'BODY': <class 'gluon.html.BODY'>, 'BR': <class 'gluon.html.BR'>, 'BUTTON': <class 'gluon.html.BUTTON'>, ...}"
p69
sS'ccode'
p70
S'<code object <module> at 04B1FB60, file "C:\\User...eb2py\\applications\\welcome\\models\\db.py", line 8>'
p71
ssS'lnum'
p72
I219
sS'lines'
p73
(dp74
I214
S'    if environment is None:'
p75
sI215
S'        environment = {}'
p76
sI216
S"    environment['__file__'] = layer"
p77
sI217
S"    environment['__name__'] = '__restricted__'"
p78
sI218
S'    try:'
p79
sI219
S'        exec(ccode, environment)'
p80
sI220
S'    except HTTP:'
p81
sI221
S'        raise'
p82
sI222
S'    except RestrictedError:'
p83
sI223
S'        # do not encapsulate (obfuscate) the original RestrictedError'
p84
ssS'call'
p85
S'(ccode=<code object <module> at 04B1FB60, file "C:\\User...eb2py\\applications\\welcome\\models\\db.py", line 8>, environment={\'A\': <class \'gluon.html.A\'>, \'ANY_OF\': <class \'gluon.validators.ANY_OF\'>, \'ASSIGNJS\': <function ASSIGNJS>, \'AppConfig\': <function AppConfig>, \'Auth\': <class \'gluon.tools.Auth\'>, \'B\': <class \'gluon.html.B\'>, \'BEAUTIFY\': <class \'gluon.html.BEAUTIFY\'>, \'BODY\': <class \'gluon.html.BODY\'>, \'BR\': <class \'gluon.html.BR\'>, \'BUTTON\': <class \'gluon.html.BUTTON\'>, ...}, layer=r\'C:\\Users\\asus\\Downloads\\web2py_win\\web2py\\applications\\welcome\\models\\db.py\', scode=<code object <module> at 04B1FB60, file "C:\\User...eb2py\\applications\\welcome\\models\\db.py", line 8>)'
p86
sS'func'
p87
S'restricted'
p88
sa(dp89
g64
S'C:\\Users\\asus\\Downloads\\web2py_win\\web2py\\applications\\welcome\\models\\db.py'
p90
sg66
(dp91
S'IS_NOT_IN_DB'
p92
S"<class 'gluon.validators.IS_NOT_IN_DB'>"
p93
sS'db'
p94
S'<DAL uri="sqlite://storage.sqlite">'
p95
sS'auth_table'
p96
S'undefined'
p97
ssg72
I118
sg73
(dp98
I113
S'custom_auth_table.last_name.requires =   IS_NOT_EMPTY(error_message=auth.messages.is_empty)'
p99
sI114
S'custom_auth_table.password.requires = [IS_STRONG(), CRYPT()]'
p100
sI115
S'custom_auth_table.email.requires = ['
p101
sI116
S'  IS_EMAIL(error_message=auth.messages.invalid_email),'
p102
sI117
S'  IS_NOT_IN_DB(db, custom_auth_table.email)]'
p103
sI118
S'auth_table.username.requires = IS_NOT_IN_DB(db, auth_table.username)'
p104
sI119
S''
sI120
S'auth.settings.table_user = custom_auth_table # tell auth to use custom_auth_table'
p105
sI121
S'# -------------------------------------------------------------------------'
p106
sI122
S'# create all tables needed by auth if not custom tables'
p107
ssg85
S'()'
p108
sg87
S'<module>'
p109
sasS'pyver'
p110
S'Python 2.7.9: C:\\Users\\asus\\Downloads\\web2py_win\\web2py\\web2py.exe (prefix: C:\\Python27)'
p111
sS'session'
p112
g59
(S's\xbc\x01\x00\x00<div><table><tr><td style="font-weight:bold;vertical-align:top;">flash</td><td style="vertical-align:top;">:</td><td><div>None</div></td></tr><tr><td style="font-weight:bold;vertical-align:top;">last_orderby</td><td style="vertical-align:top;">:</td><td><div>None</div></td></tr><tr><td style="font-weight:bold;vertical-align:top;">last_query</td><td style="vertical-align:top;">:</td><td><div>db.auth_user.id&gt;0</div></td></tr></table></div>'
tRp113
sS'etype'
p114
S"<type 'exceptions.NameError'>"
p115
sS'date'
p116
S'Sat Oct 14 19:29:12 2017'
p117
sS'response'
p118
g59
(S's\x91\x17\x00\x00<div><table><tr><td style="font-weight:bold;vertical-align:top;">body</td><td style="vertical-align:top;">:</td><td><div>&lt;cStringIO.StringO object at 0x09FF82E0&gt;</div></td></tr><tr><td style="font-weight:bold;vertical-align:top;">cookies</td><td style="vertical-align:top;">:</td><td><div><table><tr><td style="font-weight:bold;vertical-align:top;">session_id_welcome</td><td style="vertical-align:top;">:</td><td><div>127.0.0.1-8b64f155-8062-42c4-a6c2-7f0ee18a421d<table><tr><td style="font-weight:bold;vertical-align:top;">comment</td><td style="vertical-align:top;">:</td><td><div></div></td></tr><tr><td style="font-weight:bold;vertical-align:top;">domain</td><td style="vertical-align:top;">:</td><td><div></div></td></tr><tr><td style="font-weight:bold;vertical-align:top;">expires</td><td style="vertical-align:top;">:</td><td><div></div></td></tr><tr><td style="font-weight:bold;vertical-align:top;">httponly</td><td style="vertical-align:top;">:</td><td><div></div></td></tr><tr><td style="font-weight:bold;vertical-align:top;">max-age</td><td style="vertical-align:top;">:</td><td><div></div></td></tr><tr><td style="font-weight:bold;vertical-align:top;">path</td><td style="vertical-align:top;">:</td><td><div>/</div></td></tr><tr><td style="font-weight:bold;vertical-align:top;">secure</td><td style="vertical-align:top;">:</td><td><div></div></td></tr><tr><td style="font-weight:bold;vertical-align:top;">version</td><td style="vertical-align:top;">:</td><td><div></div></td></tr></table></div></td></tr></table></div></td></tr><tr><td style="font-weight:bold;vertical-align:top;">delimiters</td><td style="vertical-align:top;">:</td><td><div><table><tr><td><div>{{</div></td></tr><tr><td><div>}}</div></td></tr></table></div></td></tr><tr><td style="font-weight:bold;vertical-align:top;">files</td><td style="vertical-align:top;">:</td><td><div><table></table></div></td></tr><tr><td style="font-weight:bold;vertical-align:top;">flash</td><td style="vertical-align:top;">:</td><td><div></div></td></tr><tr><td style="font-weight:bold;vertical-align:top;">form_label_separator</td><td style="vertical-align:top;">:</td><td><div></div></td></tr><tr><td style="font-weight:bold;vertical-align:top;">formstyle</td><td style="vertical-align:top;">:</td><td><div>bootstrap3_inline</div></td></tr><tr><td style="font-weight:bold;vertical-align:top;">generic_patterns</td><td style="vertical-align:top;">:</td><td><div><table><tr><td><div>*</div></td></tr></table></div></td></tr><tr><td style="font-weight:bold;vertical-align:top;">headers</td><td style="vertical-align:top;">:</td><td><div><table><tr><td style="font-weight:bold;vertical-align:top;">X-Powered-By</td><td style="vertical-align:top;">:</td><td><div>web2py</div></td></tr></table></div></td></tr><tr><td style="font-weight:bold;vertical-align:top;">menu</td><td style="vertical-align:top;">:</td><td><div><table></table></div></td></tr><tr><td style="font-weight:bold;vertical-align:top;">meta</td><td style="vertical-align:top;">:</td><td><div><table></table></div></td></tr><tr><td style="font-weight:bold;vertical-align:top;">models_to_run</td><td style="vertical-align:top;">:</td><td><div><table><tr><td><div>^\\w+\\.py$</div></td></tr><tr><td><div>^default/\\w+\\.py$</div></td></tr><tr><td><div>^default/user/\\w+\\.py$</div></td></tr></table></div></td></tr><tr><td style="font-weight:bold;vertical-align:top;">postprocessing</td><td style="vertical-align:top;">:</td><td><div><table></table></div></td></tr><tr><td style="font-weight:bold;vertical-align:top;">session_client</td><td style="vertical-align:top;">:</td><td><div>127.0.0.1</div></td></tr><tr><td style="font-weight:bold;vertical-align:top;">session_cookie_compression_level</td><td style="vertical-align:top;">:</td><td><div>None</div></td></tr><tr><td style="font-weight:bold;vertical-align:top;">session_cookie_expires</td><td style="vertical-align:top;">:</td><td><div>None</div></td></tr><tr><td style="font-weight:bold;vertical-align:top;">session_data_name</td><td style="vertical-align:top;">:</td><td><div>session_data_welcome</div></td></tr><tr><td style="font-weight:bold;vertical-align:top;">session_file</td><td style="vertical-align:top;">:</td><td><div>&lt;open file &#x27;C:\\\\Users\\\\asus\\\\Downloads\\\\web2py_win\\\\web2py\\\\applications\\\\welcome\\\\sessions\\\\00c\\\\059\\\\127.0.0.1-8b64f155-8062-42c4-a6c2-7f0ee18a421d&#x27;, mode &#x27;rb+&#x27; at 0x043FA498&gt;</div></td></tr><tr><td style="font-weight:bold;vertical-align:top;">session_filename</td><td style="vertical-align:top;">:</td><td><div>C:\\Users\\asus\\Downloads\\web2py_win\\web2py\\applications\\welcome\\sessions\\127.0.0.1-8b64f155-8062-42c4-a6c2-7f0ee18a421d</div></td></tr><tr><td style="font-weight:bold;vertical-align:top;">session_hash</td><td style="vertical-align:top;">:</td><td><div>13b610f3bc71390f744a7b32f91e578f</div></td></tr><tr><td style="font-weight:bold;vertical-align:top;">session_id</td><td style="vertical-align:top;">:</td><td><div>127.0.0.1-8b64f155-8062-42c4-a6c2-7f0ee18a421d</div></td></tr><tr><td style="font-weight:bold;vertical-align:top;">session_id_name</td><td style="vertical-align:top;">:</td><td><div>session_id_welcome</div></td></tr><tr><td style="font-weight:bold;vertical-align:top;">session_locked</td><td style="vertical-align:top;">:</td><td><div>True</div></td></tr><tr><td style="font-weight:bold;vertical-align:top;">session_masterapp</td><td style="vertical-align:top;">:</td><td><div>welcome</div></td></tr><tr><td style="font-weight:bold;vertical-align:top;">session_new</td><td style="vertical-align:top;">:</td><td><div>False</div></td></tr><tr><td style="font-weight:bold;vertical-align:top;">session_storage_type</td><td style="vertical-align:top;">:</td><td><div>file</div></td></tr><tr><td style="font-weight:bold;vertical-align:top;">status</td><td style="vertical-align:top;">:</td><td><div>200</div></td></tr><tr><td style="font-weight:bold;vertical-align:top;">view</td><td style="vertical-align:top;">:</td><td><div>default/user.html</div></td></tr></table></div>'
tRp119
sS'locals'
p120
(dp121
S'Service'
p122
S"<class 'gluon.tools.Service'>"
p123
sS'PY2'
p124
S'True'
p125
sS'OBJECT'
p126
S"<class 'gluon.html.OBJECT'>"
p127
sS'SQLDB'
p128
S"<class 'pydal.base.DAL'>"
p129
sg112
S"<Storage {'last_orderby': None, 'last_query': 'd...2b289', '07b36b64-e448-42eb-852f-2a2890f53d61']}>"
p130
sS'LINK'
p131
S"<class 'gluon.html.LINK'>"
p132
sS'BR'
p133
S"<class 'gluon.html.BR'>"
p134
sS'local_import'
p135
S'<function <lambda>>'
p136
sS'OPTGROUP'
p137
S"<class 'gluon.html.OPTGROUP'>"
p138
sS'LI'
p139
S"<class 'gluon.html.LI'>"
p140
sS'PRE'
p141
S"<class 'gluon.html.PRE'>"
p142
sS'IS_INT_IN_RANGE'
p143
S"<class 'gluon.validators.IS_INT_IN_RANGE'>"
p144
sS'to_bytes'
p145
S'<function to_bytes>'
p146
sS'IS_LOWER'
p147
S"<class 'gluon.validators.IS_LOWER'>"
p148
sS'IS_STRONG'
p149
S"<class 'gluon.validators.IS_STRONG'>"
p150
sS'cache'
p151
S'<gluon.cache.Cache object>'
p152
sS'IS_IN_DB'
p153
S"<class 'gluon.validators.IS_IN_DB'>"
p154
sS'TAG'
p155
S'<gluon.html.__TAG__ object>'
p156
sS'SQLField'
p157
S"<class 'pydal.objects.Field'>"
p158
sS'BODY'
p159
S"<class 'gluon.html.BODY'>"
p160
sS'IS_DATE_IN_RANGE'
p161
S"<class 'gluon.validators.IS_DATE_IN_RANGE'>"
p162
sS'TH'
p163
S"<class 'gluon.html.TH'>"
p164
sS'URL'
p165
S'<function URL>'
p166
sS'__file__'
p167
S"r'C:\\Users\\asus\\Downloads\\web2py_win\\web2py\\applications\\welcome\\models\\db.py'"
p168
sS'db'
p169
S'<DAL uri="sqlite://storage.sqlite">'
p170
sS'auth'
p171
S'<gluon.tools.Auth object>'
p172
sS'P'
S"<class 'gluon.html.P'>"
p173
sS'TFOOT'
p174
S"<class 'gluon.html.TFOOT'>"
p175
sS'iteritems'
p176
S'<function <lambda>>'
p177
sS'XHTML'
p178
S"<class 'gluon.html.XHTML'>"
p179
sS'ON'
p180
g125
sS'OL'
p181
S"<class 'gluon.html.OL'>"
p182
sS'TEXTAREA'
p183
S"<class 'gluon.html.TEXTAREA'>"
p184
sS'MENU'
p185
S"<class 'gluon.html.MENU'>"
p186
sS'LOAD'
p187
S'<function LOAD>'
p188
sS'CODE'
p189
S"<class 'gluon.html.CODE'>"
p190
sS'HTTP'
p191
S"<class 'gluon.http.HTTP'>"
p192
sS'HR'
p193
S"<class 'gluon.html.HR'>"
p194
sS'IS_DATETIME'
p195
S"<class 'gluon.validators.IS_DATETIME'>"
p196
sS'reduce'
p197
S'<built-in function reduce>'
p198
sg58
S"<Storage {'_vars': None, 'function': 'user', 'co...s\\\\web2py_win\\\\web2py\\\\applications\\\\welcome\\\\'}>"
p199
sS'LABEL'
p200
S"<class 'gluon.html.LABEL'>"
p201
sS'CLEANUP'
p202
S"<class 'gluon.validators.CLEANUP'>"
p203
sS'plugins'
p204
S'<gluon.tools.PluginManager object>'
p205
sS'SELECT'
p206
S"<class 'gluon.html.SELECT'>"
p207
sS'CENTER'
p208
S"<class 'gluon.html.CENTER'>"
p209
sS'custom_auth_table'
p210
S'<Table auth_user (id, username, first_name, last..._key, reset_password_key, registration_id, role)>'
p211
sS'Auth'
p212
S"<class 'gluon.tools.Auth'>"
p213
sS'__builtins__'
p214
S"{'ArithmeticError': <type 'exceptions.ArithmeticError'>, 'AssertionError': <type 'exceptions.AssertionError'>, 'AttributeError': <type 'exceptions.AttributeError'>, 'BaseException': <type 'exceptions.BaseException'>, 'BufferError': <type 'exceptions.BufferError'>, 'BytesWarning': <type 'exceptions.BytesWarning'>, 'DeprecationWarning': <type 'exceptions.DeprecationWarning'>, 'EOFError': <type 'exceptions.EOFError'>, 'Ellipsis': Ellipsis, 'EnvironmentError': <type 'exceptions.EnvironmentError'>, ...}"
p215
sS'HTML'
p216
S"<class 'gluon.html.HTML'>"
p217
sS'SQLFORM'
p218
S"<class 'gluon.sqlhtml.SQLFORM'>"
p219
sS'EM'
p220
S"<class 'gluon.html.EM'>"
p221
sS'redirect'
p222
S'<function redirect>'
p223
sS'FIELDSET'
p224
S"<class 'gluon.html.FIELDSET'>"
p225
sS'IS_EQUAL_TO'
p226
S"<class 'gluon.validators.IS_EQUAL_TO'>"
p227
sS'HEAD'
p228
S"<class 'gluon.html.HEAD'>"
p229
sS'embed64'
p230
S'<function embed64>'
p231
sS'IS_LIST_OF'
p232
S"<class 'gluon.validators.IS_LIST_OF'>"
p233
sS'__name__'
p234
S"'__restricted__'"
p235
sS'EMBED'
p236
S"<class 'gluon.html.EMBED'>"
p237
sS'FORM'
p238
S"<class 'gluon.html.FORM'>"
p239
sS'myconf'
p240
S"{'forms': {'formstyle': 'bootstrap3_inline', 'se...': {'names': 'localhost:*, 127.0.0.1:*, *:*, *'}}"
p241
sS'H2'
p242
S"<class 'gluon.html.H2'>"
p243
sS'H3'
p244
S"<class 'gluon.html.H3'>"
p245
sS'AppConfig'
p246
S'<function AppConfig>'
p247
sS'H1'
p248
S"<class 'gluon.html.H1'>"
p249
sS'H6'
p250
S"<class 'gluon.html.H6'>"
p251
sS'H4'
p252
S"<class 'gluon.html.H4'>"
p253
sS'H5'
p254
S"<class 'gluon.html.H5'>"
p255
sS'UL'
p256
S"<class 'gluon.html.UL'>"
p257
sS'IS_UPPER'
p258
S"<class 'gluon.validators.IS_UPPER'>"
p259
sS'xmlescape'
p260
S'<function xmlescape>'
p261
sS'IS_TIME'
p262
S"<class 'gluon.validators.IS_TIME'>"
p263
sS'OPTION'
p264
S"<class 'gluon.html.OPTION'>"
p265
sS'TITLE'
p266
S"<class 'gluon.html.TITLE'>"
p267
sS'CRYPT'
p268
S"<class 'gluon.validators.CRYPT'>"
p269
sS'IS_EMPTY_OR'
p270
S"<class 'gluon.validators.IS_EMPTY_OR'>"
p271
sS'MARKMIN'
p272
S"<class 'gluon.html.MARKMIN'>"
p273
sS'INPUT'
p274
S"<class 'gluon.html.INPUT'>"
p275
sS'STRONG'
p276
S"<class 'gluon.html.STRONG'>"
p277
sS'COL'
p278
S"<class 'gluon.html.COL'>"
p279
sS'service'
p280
S'<gluon.tools.Service object>'
p281
sS'SCRIPT'
p282
S"<class 'gluon.html.SCRIPT'>"
p283
sS'TABLE'
p284
S"<class 'gluon.html.TABLE'>"
p285
sS'IS_IPV4'
p286
S"<class 'gluon.validators.IS_IPV4'>"
p287
sS'IS_LENGTH'
p288
S"<class 'gluon.validators.IS_LENGTH'>"
p289
sS'IS_IPV6'
p290
S"<class 'gluon.validators.IS_IPV6'>"
p291
sS'XML'
p292
S"<class 'gluon.html.XML'>"
p293
sS'B'
S"<class 'gluon.html.B'>"
p294
sS'IMG'
p295
S"<class 'gluon.html.IMG'>"
p296
sS'SQLTABLE'
p297
S"<class 'gluon.sqlhtml.SQLTABLE'>"
p298
sS'IS_MATCH'
p299
S"<class 'gluon.validators.IS_MATCH'>"
p300
sS'IS_ALPHANUMERIC'
p301
S"<class 'gluon.validators.IS_ALPHANUMERIC'>"
p302
sS'SPAN'
p303
S"<class 'gluon.html.SPAN'>"
p304
sS'IS_JSON'
p305
S"<class 'gluon.validators.IS_JSON'>"
p306
sS'IS_IPADDRESS'
p307
S"<class 'gluon.validators.IS_IPADDRESS'>"
p308
sS'IS_SLUG'
p309
S"<class 'gluon.validators.IS_SLUG'>"
p310
sS'BEAUTIFY'
p311
S"<class 'gluon.html.BEAUTIFY'>"
p312
sS'META'
p313
S"<class 'gluon.html.META'>"
p314
sS'BUTTON'
p315
S"<class 'gluon.html.BUTTON'>"
p316
sS'IS_DATE'
p317
S"<class 'gluon.validators.IS_DATE'>"
p318
sS'IS_EMAIL'
p319
S"<class 'gluon.validators.IS_EMAIL'>"
p320
sS'IS_NOT_EMPTY'
p321
S"<class 'gluon.validators.IS_NOT_EMPTY'>"
p322
sS'xrange'
p323
S"<type 'xrange'>"
p324
sS'TBODY'
p325
S"<class 'gluon.html.TBODY'>"
p326
sS'CAT'
p327
S"<class 'gluon.html.CAT'>"
p328
sS'Field'
p329
S"<class 'pydal.objects.Field'>"
p330
sS'IS_LIST_OF_EMAILS'
p331
S"<class 'gluon.validators.IS_LIST_OF_EMAILS'>"
p332
sS'DIV'
p333
S"<class 'gluon.html.DIV'>"
p334
sS'LEGEND'
p335
S"<class 'gluon.html.LEGEND'>"
p336
sS'to_native'
p337
S'<function to_native>'
p338
sS'COLGROUP'
p339
S"<class 'gluon.html.COLGROUP'>"
p340
sS'DAL'
p341
S"<class 'pydal.base.DAL'>"
p342
sS'ASSIGNJS'
p343
S'<function ASSIGNJS>'
p344
sS'TR'
p345
S"<class 'gluon.html.TR'>"
p346
sS'__package__'
p347
S'None'
p348
sS'IFRAME'
p349
S"<class 'gluon.html.IFRAME'>"
p350
sS'TD'
p351
S"<class 'gluon.html.TD'>"
p352
sS'PluginManager'
p353
S"<class 'gluon.tools.PluginManager'>"
p354
sS'IS_URL'
p355
S"<class 'gluon.validators.IS_URL'>"
p356
sS'A'
S"<class 'gluon.html.A'>"
p357
sS'STYLE'
p358
S"<class 'gluon.html.STYLE'>"
p359
sS'IS_DATETIME_IN_RANGE'
p360
S"<class 'gluon.validators.IS_DATETIME_IN_RANGE'>"
p361
sS'IS_IMAGE'
p362
S"<class 'gluon.validators.IS_IMAGE'>"
p363
sS'I'
S"<class 'gluon.html.I'>"
p364
sS'IS_NOT_IN_DB'
p365
S"<class 'gluon.validators.IS_NOT_IN_DB'>"
p366
sg118
S"<Storage {'body': <cStringIO.StringO object at 0...da> at 0x046B5E30>, 'view': 'default/user.html'}>"
p367
sS'THEAD'
p368
S"<class 'gluon.html.THEAD'>"
p369
sS'ANY_OF'
p370
S"<class 'gluon.validators.ANY_OF'>"
p371
sS'IS_NULL_OR'
p372
S"<class 'gluon.validators.IS_EMPTY_OR'>"
p373
sS'IS_FLOAT_IN_RANGE'
p374
S"<class 'gluon.validators.IS_FLOAT_IN_RANGE'>"
p375
sS'IS_EXPR'
p376
S"<class 'gluon.validators.IS_EXPR'>"
p377
sS'IS_IN_SET'
p378
S"<class 'gluon.validators.IS_IN_SET'>"
p379
sS'IS_UPLOAD_FILENAME'
p380
S"<class 'gluon.validators.IS_UPLOAD_FILENAME'>"
p381
sS'IS_DECIMAL_IN_RANGE'
p382
S"<class 'gluon.validators.IS_DECIMAL_IN_RANGE'>"
p383
sS'TT'
p384
S"<class 'gluon.html.TT'>"
p385
sS'T'
S'<gluon.languages.translator object>'
p386
sssS'traceback'
p387
S'Traceback (most recent call last):\n  File "C:\\Users\\asus\\Downloads\\web2py_win\\web2py\\gluon\\restricted.py", line 219, in restricted\n    exec(ccode, environment)\n  File "C:\\Users\\asus\\Downloads\\web2py_win\\web2py\\applications\\welcome\\models\\db.py", line 118, in <module>\n    auth_table.username.requires = IS_NOT_IN_DB(db, auth_table.username)\nNameError: name \'auth_table\' is not defined\n'
p388
s.