(dp1
S'output'
p2
S"<type 'exceptions.NameError'> name 'picture_name' is not defined"
p3
sS'layer'
p4
S'C:\\Users\\asus\\Downloads\\web2py_win\\web2py\\applications\\welcome\\views\\default/index.html'
p5
sS'code'
p6
S'response.write(\'<!DOCTYPE html>\\n<!--[if (gt IE 9)|!(IE)]><!--> <html class="no-js" lang="\', escape=False)\nresponse.write(T.accepted_language or \'en\')\nresponse.write(\'"> <!--<![endif]-->\\n  <head>\\n    <meta charset="utf-8">\\n    <!-- www.phpied.com/conditional-comments-block-downloads/ -->\\n    <!-- Always force latest IE rendering engine\\n         (even in intranet) & Chrome Frame\\n         Remove this if you use the .htaccess -->\\n    <meta http-equiv="X-UA-Compatible" content="IE=edge\', escape=False)\nresponse.write(not request.is_local and \',chrome=1\' or \'\')\nresponse.write(\'">\\n    <!--  Mobile Viewport Fix\\n          j.mp/mobileviewport & davidbcalhoun.com/2010/viewport-metatag\\n          device-width: Occupy full width of the screen in its current orientation\\n          initial-scale = 1.0 retains dimensions instead of zooming out if page height > device height\\n          user-scalable = yes allows the user to zoom in -->\\n    <meta name="viewport" content="width=device-width, initial-scale=1.0">\\n    <title>\', escape=False)\nresponse.write(response.title or request.application)\nresponse.write(\'</title>\\n    <!-- http://dev.w3.org/html5/markup/meta.name.html -->\\n    <meta name="application-name" content="\', escape=False)\nresponse.write(request.application)\nresponse.write(\'">\\n    <!-- Speaking of Google, don\\\'t forget to set your site up:\\n         http://google.com/webmasters -->\\n    <meta name="google-site-verification" content="">\\n    <!-- include stylesheets -->\\n    <link rel="stylesheet" href="\', escape=False)\nresponse.write(URL(\'static\',\'css/bootstrap.min.css\'))\nresponse.write(\'"/>\\n    <link rel="stylesheet" href="\', escape=False)\nresponse.write(URL(\'static\',\'css/web2py-bootstrap3.css\'))\nresponse.write(\'"/>\\n    <link rel="shortcut icon" href="\', escape=False)\nresponse.write(URL(\'static\',\'images/favicon.ico\'))\nresponse.write(\'" type="image/x-icon">\\n    <link rel="apple-touch-icon" href="\', escape=False)\nresponse.write(URL(\'static\',\'images/favicon.png\'))\nresponse.write(\'">\\n    <!-- All JavaScript at the bottom, except for Modernizr which enables\\n         HTML5 elements & feature detects -->\\n    <script src="\', escape=False)\nresponse.write(URL(\'static\',\'js/modernizr-2.8.3.min.js\'))\nresponse.write(\'"></script>\\n    <!--[if lt IE 9]>\\n        <script src="\', escape=False)\nresponse.write(URL(\'static\',\'js/respond-1.4.2.min.js\'))\nresponse.write(\'"></script>\\n        <![endif]-->\\n    <!-- Favicons -->\\n    \', escape=False)\nresponse.write(\'<script type="text/javascript"><!--\\n    // These variables are used by the web2py_ajax_init function in web2py_ajax.js (which is loaded below).\\n    \', escape=False)\nresponse.write(ASSIGNJS(\nw2p_ajax_confirm_message = T(\'Are you sure you want to delete this object?\'),\nw2p_ajax_disable_with_message = T(\'Working...\'),\nw2p_ajax_date_format = T(\'%Y-%m-%d\'),\nw2p_ajax_datetime_format = T(\'%Y-%m-%d %H:%M:%S\'),\najax_error_500 = T.M(\'An error occured, please [[reload %s]] the page\') % URL(args=request.args, vars=request.get_vars)\n))\nresponse.write(\'\\n    //--></script>\\n\', escape=False)\nresponse.files.insert(0,URL(\'static\',\'js/jquery.js\'))\nresponse.files.insert(1,URL(\'static\',\'css/calendar.css\'))\nresponse.files.insert(2,URL(\'static\',\'js/calendar.js\'))\nresponse.files.insert(3,URL(\'static\',\'js/web2py.js\'))\nresponse.include_meta()\nresponse.include_files()\nresponse.write(\'\\n\', escape=False)\nresponse.write(\' <!-- this includes jquery.js, calendar.js/.css and web2py.js -->\\n    \', escape=False)\nresponse.write(\'\\n    \', escape=False)\n# using sidebars need to know what sidebar you want to use\nmc0 = \'col-md-12\'\nmc1 = \'col-md-9\'\nmc2 = \'col-md-6\'\nleft_sidebar_enabled = globals().get(\'left_sidebar_enabled\', False)\nright_sidebar_enabled = globals().get(\'right_sidebar_enabled\', False)\nmiddle_column = {0: mc0, 1: mc1, 2: mc2}[\n(left_sidebar_enabled and 1 or 0)+(right_sidebar_enabled and 1 or 0)]\nresponse.write(\'\\n  </head>\\n  <body>\\n    <!--[if lt IE 8]><p class="browserupgrade">You are using an <strong>outdated</strong> browser. Please <a href="http://browsehappy.com/">upgrade your browser</a> to improve your experience.</p><![endif]-->\\n    <div class="w2p_flash alert alert-dismissable">\', escape=False)\nresponse.write(response.flash or \'\')\nresponse.write(\'</div>\\n    <!-- Navbar ======================================= -->\\n    <nav class="navbar navbar-default navbar-fixed-top" role="navigation">\\n      <div class="container-fluid">\\n        <div class="navbar-header">\\n          <button type="button" class="navbar-toggle" data-toggle="collapse" data-target=".navbar-collapse">\\n            <span class="sr-only">Toggle navigation</span>\\n            <span class="icon-bar"></span>\\n            <span class="icon-bar"></span>\\n            <span class="icon-bar"></span>\\n          </button>\\n          \', escape=False)\nresponse.write(response.logo or \'\')\nresponse.write(\'\\n        </div>\\n        <div class="collapse navbar-collapse">\\n          <ul class="nav navbar-nav navbar-right">\\n            \', escape=False)\nresponse.write(\'auth\' in globals() and auth.navbar(\'Welcome\',mode=\'dropdown\') or \'\')\nresponse.write(\'\\n          </ul>\\n          \', escape=False)\nif response.menu:\n    response.write(\'\\n          \', escape=False)\n    response.write(MENU(response.menu, _class=\'nav navbar-nav\',li_class=\'dropdown\',ul_class=\'dropdown-menu\'))\n    response.write(\'\\n          \', escape=False)\n    pass\nresponse.write(\'\\n        </div>\\n      </div>\\n    </nav>\\n    <!-- Masthead ===================================== -->    \\n    \', escape=False)\nresponse.write(\'\\n    \', escape=False)\nresponse.write(\'\\n    <!-- Main ========================================= -->\\n    <!-- Begin page content -->\\n    <div class="container-fluid main-container">\\n      \', escape=False)\nif left_sidebar_enabled:\n    response.write(\'\\n        <div class="col-md-3 left-sidebar">\\n            \', escape=False)\n    response.write(\'\\n            <h3>Left Sidebar</h3>\\n            <p></p>\\n            \', escape=False)\n    response.write(\'\\n        </div>\\n      \', escape=False)\n    pass\nresponse.write(\'\\n\\n      <div class="\', escape=False)\nresponse.write(middle_column)\nresponse.write(\'">\\n        \', escape=False)\nresponse.write(\'\\n        \', escape=False)\nresponse.write(\'\\r\\n<img src="\', escape=False)\nresponse.write(URL(\'default\', \'download\', args=picture_name))\nresponse.write(\'" />\\r\\n\', escape=False)\nresponse.write(\'\\n        \', escape=False)\nresponse.write(\'\\n      </div>\\n\\n      \', escape=False)\nif right_sidebar_enabled:\n    response.write(\'\\n        <div class="col-md-3">\\n            \', escape=False)\n    response.write(\'\\n            <h3>Right Sidebar</h3>\\n            <p></p>\\n            \', escape=False)\n    response.write(\'\\n        </div>\\n      \', escape=False)\n    pass\nresponse.write(\'\\n\\n    </div>\\n\\n    \', escape=False)\nresponse.write(\' <!-- this is default footer -->      \\n    <footer class="footer">\\n      <div class="container-fluid">\\n        <div class="copyright pull-left">\', escape=False)\nresponse.write(T(\'Copyright\'))\nresponse.write(\' &#169; \', escape=False)\nresponse.write(request.now.year)\nresponse.write(\'</div>\\n          <div id="poweredBy" class="pull-right">\\n            \', escape=False)\nresponse.write(T(\'Powered by\'))\nresponse.write(\'\\n            <a href="http://www.web2py.com/">web2py</a>\\n          </div>\\n      </div>\\n    </footer>\\n    \', escape=False)\nresponse.write(\'\\n    <!-- The javascript =============================== -->\\n    <script src="\', escape=False)\nresponse.write(URL(\'static\',\'js/bootstrap.min.js\'))\nresponse.write(\'"></script>\\n    <script src="\', escape=False)\nresponse.write(URL(\'static\',\'js/web2py-bootstrap3.js\'))\nresponse.write(\'"></script>\\n    \', escape=False)\nresponse.write(\'\\n    \', escape=False)\nif response.google_analytics_id:\n    response.write(\'\\n    <!-- Analytics ==================================== -->\\n    <script src="\', escape=False)\n    response.write(URL(\'static\',\'js/analytics.min.js\'))\n    response.write(\'"></script>\\n    <script type="text/javascript">\\n      analytics.initialize({\\n      \\\'Google Analytics\\\':{trackingId:\\\'\', escape=False)\n    response.write(response.google_analytics_id)\n    response.write("\'}\\n      });\\n    </script>\\n    ", escape=False)\n    pass\nresponse.write(\'\\n    <!-- Share ============================y============ -->\\n    <script src="\', escape=False)\nresponse.write(URL(\'static\',\'js/share.js\',vars=dict(static=URL(\'static\',\'images\'))))\nresponse.write(\'"></script>\\n  </body>\\n</html>\\n\', escape=False)'
p7
sS'snapshot'
p8
(dp9
S'exception'
p10
(dp11
S'__getslice__'
p12
S"<method-wrapper '__getslice__' of exceptions.NameError object>"
p13
sS'__str__'
p14
S"<method-wrapper '__str__' of exceptions.NameError object>"
p15
sS'__reduce__'
p16
S'<built-in method __reduce__ of exceptions.NameError object>'
p17
sS'__dict__'
p18
S'{}'
p19
sS'message'
p20
S'"name \'picture_name\' is not defined"'
p21
sS'__sizeof__'
p22
S'<built-in method __sizeof__ of exceptions.NameError object>'
p23
sS'__init__'
p24
S"<method-wrapper '__init__' of exceptions.NameError object>"
p25
sS'__setattr__'
p26
S"<method-wrapper '__setattr__' of exceptions.NameError object>"
p27
sS'__reduce_ex__'
p28
S'<built-in method __reduce_ex__ of exceptions.NameError object>'
p29
sS'__new__'
p30
S'<built-in method __new__ of type object>'
p31
sS'__format__'
p32
S'<built-in method __format__ of exceptions.NameError object>'
p33
sS'__class__'
p34
S"<type 'exceptions.NameError'>"
p35
sS'__doc__'
p36
S"'Name not found globally.'"
p37
sS'__getitem__'
p38
S"<method-wrapper '__getitem__' of exceptions.NameError object>"
p39
sS'__setstate__'
p40
S'<built-in method __setstate__ of exceptions.NameError object>'
p41
sS'__getattribute__'
p42
S"<method-wrapper '__getattribute__' of exceptions.NameError object>"
p43
sS'args'
p44
S'("name \'picture_name\' is not defined",)'
p45
sS'__subclasshook__'
p46
S'<built-in method __subclasshook__ of type object>'
p47
sS'__unicode__'
p48
S'<built-in method __unicode__ of exceptions.NameError object>'
p49
sS'__delattr__'
p50
S"<method-wrapper '__delattr__' of exceptions.NameError object>"
p51
sS'__repr__'
p52
S"<method-wrapper '__repr__' of exceptions.NameError object>"
p53
sS'__hash__'
p54
S"<method-wrapper '__hash__' of exceptions.NameError object>"
p55
ssS'evalue'
p56
S"name 'picture_name' is not defined"
p57
sS'request'
p58
cgluon.html
XML_unpickle
p59
(S's\xf2Z\x00\x00<div><table><tr><td style="font-weight:bold;vertical-align:top;">ajax</td><td style="vertical-align:top;">:</td><td><div>False</div></td></tr><tr><td style="font-weight:bold;vertical-align:top;">application</td><td style="vertical-align:top;">:</td><td><div>welcome</div></td></tr><tr><td style="font-weight:bold;vertical-align:top;">args</td><td style="vertical-align:top;">:</td><td><div><table></table></div></td></tr><tr><td style="font-weight:bold;vertical-align:top;">cid</td><td style="vertical-align:top;">:</td><td><div>None</div></td></tr><tr><td style="font-weight:bold;vertical-align:top;">client</td><td style="vertical-align:top;">:</td><td><div>127.0.0.1</div></td></tr><tr><td style="font-weight:bold;vertical-align:top;">controller</td><td style="vertical-align:top;">:</td><td><div>default</div></td></tr><tr><td style="font-weight:bold;vertical-align:top;">cookies</td><td style="vertical-align:top;">:</td><td><div><table><tr><td style="font-weight:bold;vertical-align:top;">session_id_admin</td><td style="vertical-align:top;">:</td><td><div>127.0.0.1-45b2df0b-31e4-435b-8f9d-0d4af992095c<table><tr><td style="font-weight:bold;vertical-align:top;">comment</td><td style="vertical-align:top;">:</td><td><div></div></td></tr><tr><td style="font-weight:bold;vertical-align:top;">domain</td><td style="vertical-align:top;">:</td><td><div></div></td></tr><tr><td style="font-weight:bold;vertical-align:top;">expires</td><td style="vertical-align:top;">:</td><td><div></div></td></tr><tr><td style="font-weight:bold;vertical-align:top;">httponly</td><td style="vertical-align:top;">:</td><td><div></div></td></tr><tr><td style="font-weight:bold;vertical-align:top;">max-age</td><td style="vertical-align:top;">:</td><td><div></div></td></tr><tr><td style="font-weight:bold;vertical-align:top;">path</td><td style="vertical-align:top;">:</td><td><div></div></td></tr><tr><td style="font-weight:bold;vertical-align:top;">secure</td><td style="vertical-align:top;">:</td><td><div></div></td></tr><tr><td style="font-weight:bold;vertical-align:top;">version</td><td style="vertical-align:top;">:</td><td><div></div></td></tr></table></div></td></tr><tr><td style="font-weight:bold;vertical-align:top;">session_id_welcome</td><td style="vertical-align:top;">:</td><td><div>127.0.0.1-7f33bcc5-f40e-4978-9057-3fa3401a97cd<table><tr><td style="font-weight:bold;vertical-align:top;">comment</td><td style="vertical-align:top;">:</td><td><div></div></td></tr><tr><td style="font-weight:bold;vertical-align:top;">domain</td><td style="vertical-align:top;">:</td><td><div></div></td></tr><tr><td style="font-weight:bold;vertical-align:top;">expires</td><td style="vertical-align:top;">:</td><td><div></div></td></tr><tr><td style="font-weight:bold;vertical-align:top;">httponly</td><td style="vertical-align:top;">:</td><td><div></div></td></tr><tr><td style="font-weight:bold;vertical-align:top;">max-age</td><td style="vertical-align:top;">:</td><td><div></div></td></tr><tr><td style="font-weight:bold;vertical-align:top;">path</td><td style="vertical-align:top;">:</td><td><div></div></td></tr><tr><td style="font-weight:bold;vertical-align:top;">secure</td><td style="vertical-align:top;">:</td><td><div></div></td></tr><tr><td style="font-weight:bold;vertical-align:top;">version</td><td style="vertical-align:top;">:</td><td><div></div></td></tr></table></div></td></tr></table></div></td></tr><tr><td style="font-weight:bold;vertical-align:top;">env</td><td style="vertical-align:top;">:</td><td><div><table><tr><td style="font-weight:bold;vertical-align:top;">HTTP_ACCEPT</td><td style="vertical-align:top;">:</td><td><div>text/html,application/xhtml+xml,application/xml;q=0.9,image/webp,image/apng,*/*;q=0.8</div></td></tr><tr><td style="font-weight:bold;vertical-align:top;">HTTP_ACCEPT_ENCODING</td><td style="vertical-align:top;">:</td><td><div>gzip, deflate, br</div></td></tr><tr><td style="font-weight:bold;vertical-align:top;">HTTP_ACCEPT_LANGUAGE</td><td style="vertical-align:top;">:</td><td><div>th-TH,th;q=0.8</div></td></tr><tr><td style="font-weight:bold;vertical-align:top;">HTTP_CACHE_CONTROL</td><td style="vertical-align:top;">:</td><td><div>max-age=0</div></td></tr><tr><td style="font-weight:bold;vertical-align:top;">HTTP_CONNECTION</td><td style="vertical-align:top;">:</td><td><div>keep-alive</div></td></tr><tr><td style="font-weight:bold;vertical-align:top;">HTTP_COOKIE</td><td style="vertical-align:top;">:</td><td><div>__utmt_UA-101445141-1=1; __utma=96992031.441855095.1507809625.1508171904.1508174790.9; __utmb=96992031.35.10.1508174790; __utmc=96992031; __utmz=96992031.1507809625.1.1.utmcsr=(direct)|utmccn=(direct)|utmcmd=(none); session_id_welcome=127.0.0.1-7f33bcc5-f40e-4978-9057-3fa3401a97cd; session_id_admin=127.0.0.1-45b2df0b-31e4-435b-8f9d-0d4af992095c</div></td></tr><tr><td style="font-weight:bold;vertical-align:top;">HTTP_HOST</td><td style="vertical-align:top;">:</td><td><div>127.0.0.1:8000</div></td></tr><tr><td style="font-weight:bold;vertical-align:top;">HTTP_REFERER</td><td style="vertical-align:top;">:</td><td><div>http://127.0.0.1:8000/welcome/default/user/profile?_next=/welcome/default/index</div></td></tr><tr><td style="font-weight:bold;vertical-align:top;">HTTP_UPGRADE_INSECURE_REQUESTS</td><td style="vertical-align:top;">:</td><td><div>1</div></td></tr><tr><td style="font-weight:bold;vertical-align:top;">HTTP_USER_AGENT</td><td style="vertical-align:top;">:</td><td><div>Mozilla/5.0 (Windows NT 10.0; Win64; x64) AppleWebKit/537.36 (KHTML, like Gecko) Chrome/61.0.3163.100 Safari/537.36</div></td></tr><tr><td style="font-weight:bold;vertical-align:top;">PATH_INFO</td><td style="vertical-align:top;">:</td><td><div>/welcome/default/index</div></td></tr><tr><td style="font-weight:bold;vertical-align:top;">QUERY_STRING</td><td style="vertical-align:top;">:</td><td><div></div></td></tr><tr><td style="font-weight:bold;vertical-align:top;">REMOTE_ADDR</td><td style="vertical-align:top;">:</td><td><div>127.0.0.1</div></td></tr><tr><td style="font-weight:bold;vertical-align:top;">REMOTE_PORT</td><td style="vertical-align:top;">:</td><td><div>65200</div></td></tr><tr><td style="font-weight:bold;vertical-align:top;">REQUEST_METHOD</td><td style="vertical-align:top;">:</td><td><div>GET</div></td></tr><tr><td style="font-weight:bold;vertical-align:top;">SCRIPT_NAME</td><td style="vertical-align:top;">:</td><td><div></div></td></tr><tr><td style="font-weight:bold;vertical-align:top;">SERVER_NAME</td><td style="vertical-align:top;">:</td><td><div>LWB</div></td></tr><tr><td style="font-weight:bold;vertical-align:top;">SERVER_PORT</td><td style="vertical-align:top;">:</td><td><div>8000</div></td></tr><tr><td style="font-weight:bold;vertical-align:top;">SERVER_PROTOCOL</td><td style="vertical-align:top;">:</td><td><div>HTTP/1.1</div></td></tr><tr><td style="font-weight:bold;vertical-align:top;">SERVER_SOFTWARE</td><td style="vertical-align:top;">:</td><td><div>Rocket 1.2.6</div></td></tr><tr><td style="font-weight:bold;vertical-align:top;">app_folders</td><td style="vertical-align:top;">:</td><td><div>set([&#x27;C:\\\\Users\\\\asus\\\\Downloads\\\\web2py_win\\\\web2py\\\\applications\\\\admin\\\\&#x27;, &#x27;C:\\\\Users\\\\asus\\\\Downloads\\\\web2py_win\\\\web2py\\\\applications\\\\welcome\\\\&#x27;])</div></td></tr><tr><td style="font-weight:bold;vertical-align:top;">applications_parent</td><td style="vertical-align:top;">:</td><td><div>C:\\Users\\asus\\Downloads\\web2py_win\\web2py</div></td></tr><tr><td style="font-weight:bold;vertical-align:top;">cmd_args</td><td style="vertical-align:top;">:</td><td><div><table></table></div></td></tr><tr><td style="font-weight:bold;vertical-align:top;">cmd_options</td><td style="vertical-align:top;">:</td><td><div>&lt;Values at 0x3c1fa80: {&#x27;verbose&#x27;: False, &#x27;ip&#x27;: &#x27;127.0.0.1&#x27;, &#x27;debuglevel&#x27;: 30, &#x27;with_scheduler&#x27;: False, &#x27;shutdown_timeout&#x27;: 5, &#x27;taskbar&#x27;: False, &#x27;with_coverage&#x27;: False, &#x27;pid_filename&#x27;: &#x27;httpserver.pid&#x27;, &#x27;maxthreads&#x27;: None, &#x27;softcron&#x27;: False, &#x27;server_name&#x27;: &#x27;LWB&#x27;, &#x27;bpython&#x27;: False, &#x27;nogui&#x27;: False, &#x27;port&#x27;: 8000, &#x27;print_errors&#x27;: False, &#x27;extcron&#x27;: False, &#x27;runcron&#x27;: False, &#x27;run_system_tests&#x27;: False, &#x27;test&#x27;: None, &#x27;folder&#x27;: &#x27;C:\\\\Users\\\\asus\\\\Downloads\\\\web2py_win\\\\web2py&#x27;, &#x27;config&#x27;: &#x27;&#x27;, &#x27;minthreads&#x27;: None, &#x27;shell&#x27;: None, &#x27;run&#x27;: &#x27;&#x27;, &#x27;log_filename&#x27;: &#x27;httpserver.log&#x27;, &#x27;profiler_dir&#x27;: None, &#x27;args&#x27;: [&#x27;&#x27;], &#x27;socket_timeout&#x27;: 5, &#x27;ssl_ca_certificate&#x27;: None, &#x27;scheduler&#x27;: None, &#x27;interfaces&#x27;: None, &#x27;ssl_private_key&#x27;: &#x27;&#x27;, &#x27;gae&#x27;: None, &#x27;password&#x27;: &#x27;******&#x27;, &#x27;request_queue_size&#x27;: 5, &#x27;ssl_certificate&#x27;: &#x27;&#x27;, &#x27;cronjob&#x27;: False, &#x27;numthreads&#x27;: None, &#x27;quiet&#x27;: False, &#x27;import_models&#x27;: False, &#x27;timeout&#x27;: 10, &#x27;plain&#x27;: False, &#x27;nobanner&#x27;: False}&gt;</div></td></tr><tr><td style="font-weight:bold;vertical-align:top;">db_sessions</td><td style="vertical-align:top;">:</td><td><div>set([])</div></td></tr><tr><td style="font-weight:bold;vertical-align:top;">debugging</td><td style="vertical-align:top;">:</td><td><div>True</div></td></tr><tr><td style="font-weight:bold;vertical-align:top;">gluon_parent</td><td style="vertical-align:top;">:</td><td><div>C:\\Users\\asus\\Downloads\\web2py_win\\web2py</div></td></tr><tr><td style="font-weight:bold;vertical-align:top;">http_accept</td><td style="vertical-align:top;">:</td><td><div>text/html,application/xhtml+xml,application/xml;q=0.9,image/webp,image/apng,*/*;q=0.8</div></td></tr><tr><td style="font-weight:bold;vertical-align:top;">http_accept_encoding</td><td style="vertical-align:top;">:</td><td><div>gzip, deflate, br</div></td></tr><tr><td style="font-weight:bold;vertical-align:top;">http_accept_language</td><td style="vertical-align:top;">:</td><td><div>th-TH,th;q=0.8</div></td></tr><tr><td style="font-weight:bold;vertical-align:top;">http_cache_control</td><td style="vertical-align:top;">:</td><td><div>max-age=0</div></td></tr><tr><td style="font-weight:bold;vertical-align:top;">http_connection</td><td style="vertical-align:top;">:</td><td><div>keep-alive</div></td></tr><tr><td style="font-weight:bold;vertical-align:top;">http_cookie</td><td style="vertical-align:top;">:</td><td><div>__utmt_UA-101445141-1=1; __utma=96992031.441855095.1507809625.1508171904.1508174790.9; __utmb=96992031.35.10.1508174790; __utmc=96992031; __utmz=96992031.1507809625.1.1.utmcsr=(direct)|utmccn=(direct)|utmcmd=(none); session_id_welcome=127.0.0.1-7f33bcc5-f40e-4978-9057-3fa3401a97cd; session_id_admin=127.0.0.1-45b2df0b-31e4-435b-8f9d-0d4af992095c</div></td></tr><tr><td style="font-weight:bold;vertical-align:top;">http_host</td><td style="vertical-align:top;">:</td><td><div>127.0.0.1:8000</div></td></tr><tr><td style="font-weight:bold;vertical-align:top;">http_referer</td><td style="vertical-align:top;">:</td><td><div>http://127.0.0.1:8000/welcome/default/user/profile?_next=/welcome/default/index</div></td></tr><tr><td style="font-weight:bold;vertical-align:top;">http_upgrade_insecure_requests</td><td style="vertical-align:top;">:</td><td><div>1</div></td></tr><tr><td style="font-weight:bold;vertical-align:top;">http_user_agent</td><td style="vertical-align:top;">:</td><td><div>Mozilla/5.0 (Windows NT 10.0; Win64; x64) AppleWebKit/537.36 (KHTML, like Gecko) Chrome/61.0.3163.100 Safari/537.36</div></td></tr><tr><td style="font-weight:bold;vertical-align:top;">is_jython</td><td style="vertical-align:top;">:</td><td><div>False</div></td></tr><tr><td style="font-weight:bold;vertical-align:top;">is_py2</td><td style="vertical-align:top;">:</td><td><div>True</div></td></tr><tr><td style="font-weight:bold;vertical-align:top;">is_pypy</td><td style="vertical-align:top;">:</td><td><div>False</div></td></tr><tr><td style="font-weight:bold;vertical-align:top;">is_source</td><td style="vertical-align:top;">:</td><td><div>False</div></td></tr><tr><td style="font-weight:bold;vertical-align:top;">local_hosts</td><td style="vertical-align:top;">:</td><td><div><table><tr><td><div>::ffff:127.0.0.1</div></td></tr><tr><td><div>::1</div></td></tr><tr><td><div>fe80::fce5:662e:2b23:e76b%12</div></td></tr><tr><td><div>192.168.2.178</div></td></tr><tr><td><div>LWB</div></td></tr><tr><td><div>127.0.0.1</div></td></tr></table></div></td></tr><tr><td style="font-weight:bold;vertical-align:top;">path_info</td><td style="vertical-align:top;">:</td><td><div>/welcome/default/index</div></td></tr><tr><td style="font-weight:bold;vertical-align:top;">query_string</td><td style="vertical-align:top;">:</td><td><div></div></td></tr><tr><td style="font-weight:bold;vertical-align:top;">remote_addr</td><td style="vertical-align:top;">:</td><td><div>127.0.0.1</div></td></tr><tr><td style="font-weight:bold;vertical-align:top;">remote_port</td><td style="vertical-align:top;">:</td><td><div>65200</div></td></tr><tr><td style="font-weight:bold;vertical-align:top;">request_method</td><td style="vertical-align:top;">:</td><td><div>GET</div></td></tr><tr><td style="font-weight:bold;vertical-align:top;">request_uri</td><td style="vertical-align:top;">:</td><td><div>/welcome/default/index</div></td></tr><tr><td style="font-weight:bold;vertical-align:top;">script_name</td><td style="vertical-align:top;">:</td><td><div></div></td></tr><tr><td style="font-weight:bold;vertical-align:top;">server_name</td><td style="vertical-align:top;">:</td><td><div>LWB</div></td></tr><tr><td style="font-weight:bold;vertical-align:top;">server_port</td><td style="vertical-align:top;">:</td><td><div>8000</div></td></tr><tr><td style="font-weight:bold;vertical-align:top;">server_protocol</td><td style="vertical-align:top;">:</td><td><div>HTTP/1.1</div></td></tr><tr><td style="font-weight:bold;vertical-align:top;">server_software</td><td style="vertical-align:top;">:</td><td><div>Rocket 1.2.6</div></td></tr><tr><td style="font-weight:bold;vertical-align:top;">web2py_path</td><td style="vertical-align:top;">:</td><td><div>C:\\Users\\asus\\Downloads\\web2py_win\\web2py</div></td></tr><tr><td style="font-weight:bold;vertical-align:top;">web2py_version</td><td style="vertical-align:top;">:</td><td><div>2.15.4-stable+timestamp.2017.09.02.04.02.22</div></td></tr><tr><td style="font-weight:bold;vertical-align:top;">wsgi.errors</td><td style="vertical-align:top;">:</td><td><div>&lt;open file &#x27;&lt;stderr&gt;&#x27;, mode &#x27;w&#x27; at 0x0242D0D0&gt;</div></td></tr><tr><td style="font-weight:bold;vertical-align:top;">wsgi.file_wrapper</td><td style="vertical-align:top;">:</td><td><div>&lt;class wsgiref.util.FileWrapper at 0x03BE1A78&gt;</div></td></tr><tr><td style="font-weight:bold;vertical-align:top;">wsgi.input</td><td style="vertical-align:top;">:</td><td><div>&lt;socket._fileobject object at 0x0A78DAB0&gt;</div></td></tr><tr><td style="font-weight:bold;vertical-align:top;">wsgi.multiprocess</td><td style="vertical-align:top;">:</td><td><div>False</div></td></tr><tr><td style="font-weight:bold;vertical-align:top;">wsgi.multithread</td><td style="vertical-align:top;">:</td><td><div>True</div></td></tr><tr><td style="font-weight:bold;vertical-align:top;">wsgi.run_once</td><td style="vertical-align:top;">:</td><td><div>False</div></td></tr><tr><td style="font-weight:bold;vertical-align:top;">wsgi.url_scheme</td><td style="vertical-align:top;">:</td><td><div>http</div></td></tr><tr><td style="font-weight:bold;vertical-align:top;">wsgi.version</td><td style="vertical-align:top;">:</td><td><div><table><tr><td><div>1</div></td></tr><tr><td><div>0</div></td></tr></table></div></td></tr><tr><td style="font-weight:bold;vertical-align:top;">wsgi_errors</td><td style="vertical-align:top;">:</td><td><div>&lt;open file &#x27;&lt;stderr&gt;&#x27;, mode &#x27;w&#x27; at 0x0242D0D0&gt;</div></td></tr><tr><td style="font-weight:bold;vertical-align:top;">wsgi_file_wrapper</td><td style="vertical-align:top;">:</td><td><div>&lt;class wsgiref.util.FileWrapper at 0x03BE1A78&gt;</div></td></tr><tr><td style="font-weight:bold;vertical-align:top;">wsgi_input</td><td style="vertical-align:top;">:</td><td><div>&lt;socket._fileobject object at 0x0A78DAB0&gt;</div></td></tr><tr><td style="font-weight:bold;vertical-align:top;">wsgi_multiprocess</td><td style="vertical-align:top;">:</td><td><div>False</div></td></tr><tr><td style="font-weight:bold;vertical-align:top;">wsgi_multithread</td><td style="vertical-align:top;">:</td><td><div>True</div></td></tr><tr><td style="font-weight:bold;vertical-align:top;">wsgi_run_once</td><td style="vertical-align:top;">:</td><td><div>False</div></td></tr><tr><td style="font-weight:bold;vertical-align:top;">wsgi_url_scheme</td><td style="vertical-align:top;">:</td><td><div>http</div></td></tr><tr><td style="font-weight:bold;vertical-align:top;">wsgi_version</td><td style="vertical-align:top;">:</td><td><div><table><tr><td><div>1</div></td></tr><tr><td><div>0</div></td></tr></table></div></td></tr></table></div></td></tr><tr><td style="font-weight:bold;vertical-align:top;">extension</td><td style="vertical-align:top;">:</td><td><div>html</div></td></tr><tr><td style="font-weight:bold;vertical-align:top;">folder</td><td style="vertical-align:top;">:</td><td><div>C:\\Users\\asus\\Downloads\\web2py_win\\web2py\\applications\\welcome\\</div></td></tr><tr><td style="font-weight:bold;vertical-align:top;">function</td><td style="vertical-align:top;">:</td><td><div>index</div></td></tr><tr><td style="font-weight:bold;vertical-align:top;">global_settings</td><td style="vertical-align:top;">:</td><td><div><table><tr><td style="font-weight:bold;vertical-align:top;">app_folders</td><td style="vertical-align:top;">:</td><td><div>set([&#x27;C:\\\\Users\\\\asus\\\\Downloads\\\\web2py_win\\\\web2py\\\\applications\\\\admin\\\\&#x27;, &#x27;C:\\\\Users\\\\asus\\\\Downloads\\\\web2py_win\\\\web2py\\\\applications\\\\welcome\\\\&#x27;])</div></td></tr><tr><td style="font-weight:bold;vertical-align:top;">applications_parent</td><td style="vertical-align:top;">:</td><td><div>C:\\Users\\asus\\Downloads\\web2py_win\\web2py</div></td></tr><tr><td style="font-weight:bold;vertical-align:top;">cmd_args</td><td style="vertical-align:top;">:</td><td><div><table></table></div></td></tr><tr><td style="font-weight:bold;vertical-align:top;">cmd_options</td><td style="vertical-align:top;">:</td><td><div>&lt;Values at 0x3c1fa80: {&#x27;verbose&#x27;: False, &#x27;ip&#x27;: &#x27;127.0.0.1&#x27;, &#x27;debuglevel&#x27;: 30, &#x27;with_scheduler&#x27;: False, &#x27;shutdown_timeout&#x27;: 5, &#x27;taskbar&#x27;: False, &#x27;with_coverage&#x27;: False, &#x27;pid_filename&#x27;: &#x27;httpserver.pid&#x27;, &#x27;maxthreads&#x27;: None, &#x27;softcron&#x27;: False, &#x27;server_name&#x27;: &#x27;LWB&#x27;, &#x27;bpython&#x27;: False, &#x27;nogui&#x27;: False, &#x27;port&#x27;: 8000, &#x27;print_errors&#x27;: False, &#x27;extcron&#x27;: False, &#x27;runcron&#x27;: False, &#x27;run_system_tests&#x27;: False, &#x27;test&#x27;: None, &#x27;folder&#x27;: &#x27;C:\\\\Users\\\\asus\\\\Downloads\\\\web2py_win\\\\web2py&#x27;, &#x27;config&#x27;: &#x27;&#x27;, &#x27;minthreads&#x27;: None, &#x27;shell&#x27;: None, &#x27;run&#x27;: &#x27;&#x27;, &#x27;log_filename&#x27;: &#x27;httpserver.log&#x27;, &#x27;profiler_dir&#x27;: None, &#x27;args&#x27;: [&#x27;&#x27;], &#x27;socket_timeout&#x27;: 5, &#x27;ssl_ca_certificate&#x27;: None, &#x27;scheduler&#x27;: None, &#x27;interfaces&#x27;: None, &#x27;ssl_private_key&#x27;: &#x27;&#x27;, &#x27;gae&#x27;: None, &#x27;password&#x27;: &#x27;******&#x27;, &#x27;request_queue_size&#x27;: 5, &#x27;ssl_certificate&#x27;: &#x27;&#x27;, &#x27;cronjob&#x27;: False, &#x27;numthreads&#x27;: None, &#x27;quiet&#x27;: False, &#x27;import_models&#x27;: False, &#x27;timeout&#x27;: 10, &#x27;plain&#x27;: False, &#x27;nobanner&#x27;: False}&gt;</div></td></tr><tr><td style="font-weight:bold;vertical-align:top;">db_sessions</td><td style="vertical-align:top;">:</td><td><div>set([])</div></td></tr><tr><td style="font-weight:bold;vertical-align:top;">debugging</td><td style="vertical-align:top;">:</td><td><div>True</div></td></tr><tr><td style="font-weight:bold;vertical-align:top;">gluon_parent</td><td style="vertical-align:top;">:</td><td><div>C:\\Users\\asus\\Downloads\\web2py_win\\web2py</div></td></tr><tr><td style="font-weight:bold;vertical-align:top;">is_jython</td><td style="vertical-align:top;">:</td><td><div>False</div></td></tr><tr><td style="font-weight:bold;vertical-align:top;">is_py2</td><td style="vertical-align:top;">:</td><td><div>True</div></td></tr><tr><td style="font-weight:bold;vertical-align:top;">is_pypy</td><td style="vertical-align:top;">:</td><td><div>False</div></td></tr><tr><td style="font-weight:bold;vertical-align:top;">is_source</td><td style="vertical-align:top;">:</td><td><div>False</div></td></tr><tr><td style="font-weight:bold;vertical-align:top;">local_hosts</td><td style="vertical-align:top;">:</td><td><div><table><tr><td><div>::ffff:127.0.0.1</div></td></tr><tr><td><div>::1</div></td></tr><tr><td><div>fe80::fce5:662e:2b23:e76b%12</div></td></tr><tr><td><div>192.168.2.178</div></td></tr><tr><td><div>LWB</div></td></tr><tr><td><div>127.0.0.1</div></td></tr></table></div></td></tr><tr><td style="font-weight:bold;vertical-align:top;">web2py_version</td><td style="vertical-align:top;">:</td><td><div>2.15.4-stable+timestamp.2017.09.02.04.02.22</div></td></tr></table></div></td></tr><tr><td style="font-weight:bold;vertical-align:top;">is_https</td><td style="vertical-align:top;">:</td><td><div>False</div></td></tr><tr><td style="font-weight:bold;vertical-align:top;">is_local</td><td style="vertical-align:top;">:</td><td><div>True</div></td></tr><tr><td style="font-weight:bold;vertical-align:top;">is_restful</td><td style="vertical-align:top;">:</td><td><div>False</div></td></tr><tr><td style="font-weight:bold;vertical-align:top;">is_scheduler</td><td style="vertical-align:top;">:</td><td><div>False</div></td></tr><tr><td style="font-weight:bold;vertical-align:top;">is_shell</td><td style="vertical-align:top;">:</td><td><div>False</div></td></tr><tr><td style="font-weight:bold;vertical-align:top;">now</td><td style="vertical-align:top;">:</td><td><div>datetime.datetime(2017, 10, 17, 1, 5, 18, 929000)</div></td></tr><tr><td style="font-weight:bold;vertical-align:top;">raw_args</td><td style="vertical-align:top;">:</td><td><div></div></td></tr><tr><td style="font-weight:bold;vertical-align:top;">raw_extension</td><td style="vertical-align:top;">:</td><td><div>None</div></td></tr><tr><td style="font-weight:bold;vertical-align:top;">url</td><td style="vertical-align:top;">:</td><td><div>/welcome/default/index</div></td></tr><tr><td style="font-weight:bold;vertical-align:top;">utcnow</td><td style="vertical-align:top;">:</td><td><div>datetime.datetime(2017, 10, 16, 18, 5, 18, 929000)</div></td></tr><tr><td style="font-weight:bold;vertical-align:top;">wsgi</td><td style="vertical-align:top;">:</td><td><div>&lt;gluon.main.LazyWSGI object at 0x046EC8F0&gt;</div></td></tr></table></div>'
tRp60
sS'frames'
p61
(lp62
(dp63
S'file'
p64
S'C:\\Users\\asus\\Downloads\\web2py_win\\web2py\\gluon\\restricted.py'
p65
sS'dump'
p66
(dp67
S'environment'
p68
S"{'A': <class 'gluon.html.A'>, 'ANY_OF': <class 'gluon.validators.ANY_OF'>, 'ASSIGNJS': <function ASSIGNJS>, 'AppConfig': <function AppConfig>, 'Auth': <class 'gluon.tools.Auth'>, 'B': <class 'gluon.html.B'>, 'BEAUTIFY': <class 'gluon.html.BEAUTIFY'>, 'BODY': <class 'gluon.html.BODY'>, 'BR': <class 'gluon.html.BR'>, 'BUTTON': <class 'gluon.html.BUTTON'>, ...}"
p69
sS'ccode'
p70
S'<code object <module> at 048BDBA8, file "C:\\User...ations\\welcome\\views\\default/index.html", line 1>'
p71
ssS'lnum'
p72
I219
sS'lines'
p73
(dp74
I214
S'    if environment is None:'
p75
sI215
S'        environment = {}'
p76
sI216
S"    environment['__file__'] = layer"
p77
sI217
S"    environment['__name__'] = '__restricted__'"
p78
sI218
S'    try:'
p79
sI219
S'        exec(ccode, environment)'
p80
sI220
S'    except HTTP:'
p81
sI221
S'        raise'
p82
sI222
S'    except RestrictedError:'
p83
sI223
S'        # do not encapsulate (obfuscate) the original RestrictedError'
p84
ssS'call'
p85
S'(ccode=<code object <module> at 048BDBA8, file "C:\\User...ations\\welcome\\views\\default/index.html", line 1>, environment={\'A\': <class \'gluon.html.A\'>, \'ANY_OF\': <class \'gluon.validators.ANY_OF\'>, \'ASSIGNJS\': <function ASSIGNJS>, \'AppConfig\': <function AppConfig>, \'Auth\': <class \'gluon.tools.Auth\'>, \'B\': <class \'gluon.html.B\'>, \'BEAUTIFY\': <class \'gluon.html.BEAUTIFY\'>, \'BODY\': <class \'gluon.html.BODY\'>, \'BR\': <class \'gluon.html.BR\'>, \'BUTTON\': <class \'gluon.html.BUTTON\'>, ...}, layer=r\'C:\\Users\\asus\\Downloads\\web2py_win\\web2py\\applications\\welcome\\views\\default/index.html\', scode=\'response.write(\\\'<!DOCTYPE html>\\\\n<!--[if (gt IE ..."></script>\\\\n  </body>\\\\n</html>\\\\n\\\', escape=False)\')'
p86
sS'func'
p87
S'restricted'
p88
sa(dp89
g64
S'C:\\Users\\asus\\Downloads\\web2py_win\\web2py\\applications\\welcome\\views\\default\\index.html'
p90
sg66
(dp91
sg72
I73
sg73
(dp92
I64
S'    response.write(\'\\n        <div class="col-md-3 left-sidebar">\\n            \', escape=False)'
p93
sI65
S"    response.write('\\n            <h3>Left Sidebar</h3>\\n            <p></p>\\n            ', escape=False)"
p94
sI66
S"    response.write('\\n        </div>\\n      ', escape=False)"
p95
sI67
S'    pass'
p96
sI68
S'response.write(\'\\n\\n      <div class="\', escape=False)'
p97
sI69
S'response.write(middle_column)'
p98
sI70
S'response.write(\'">\\n        \', escape=False)'
p99
sI71
S"response.write('\\n        ', escape=False)"
p100
sI72
S'response.write(\'\\r\\n<img src="\', escape=False)'
p101
sI73
S"response.write(URL('default', 'download', args=picture_name))"
p102
sI74
S'response.write(\'" />\\r\\n\', escape=False)'
p103
sI75
S"response.write('\\n        ', escape=False)"
p104
sI76
S"response.write('\\n      </div>\\n\\n      ', escape=False)"
p105
sI77
S'if right_sidebar_enabled:'
p106
sI78
S'    response.write(\'\\n        <div class="col-md-3">\\n            \', escape=False)'
p107
sI79
S"    response.write('\\n            <h3>Right Sidebar</h3>\\n            <p></p>\\n            ', escape=False)"
p108
sI80
S"    response.write('\\n        </div>\\n      ', escape=False)"
p109
sI81
S'    pass'
p110
sI82
S"response.write('\\n\\n    </div>\\n\\n    ', escape=False)"
p111
sI83
S'response.write(\' <!-- this is default footer -->      \\n    <footer class="footer">\\n      <div class="container-fluid">\\n        <div class="copyright pull-left">\', escape=False)'
p112
ssg85
S'()'
p113
sg87
S'<module>'
p114
sasS'pyver'
p115
S'Python 2.7.9: C:\\Users\\asus\\Downloads\\web2py_win\\web2py\\web2py.exe (prefix: C:\\Python27)'
p116
sS'session'
p117
g59
(S's\x11\r\x00\x00<div><table><tr><td style="font-weight:bold;vertical-align:top;">auth</td><td style="vertical-align:top;">:</td><td><div><table><tr><td style="font-weight:bold;vertical-align:top;">expiration</td><td style="vertical-align:top;">:</td><td><div>3600</div></td></tr><tr><td style="font-weight:bold;vertical-align:top;">hmac_key</td><td style="vertical-align:top;">:</td><td><div>48cdb523-d171-46e6-9a78-00b134f0ded8</div></td></tr><tr><td style="font-weight:bold;vertical-align:top;">last_visit</td><td style="vertical-align:top;">:</td><td><div>datetime.datetime(2017, 10, 17, 1, 3, 47, 92000)</div></td></tr><tr><td style="font-weight:bold;vertical-align:top;">remember_me</td><td style="vertical-align:top;">:</td><td><div>False</div></td></tr><tr><td style="font-weight:bold;vertical-align:top;">user</td><td style="vertical-align:top;">:</td><td><div><table><tr><td style="font-weight:bold;vertical-align:top;">Department</td><td style="vertical-align:top;">:</td><td><div>Institute of field robotic</div></td></tr><tr><td style="font-weight:bold;vertical-align:top;">email</td><td style="vertical-align:top;">:</td><td><div>thefonz@hotmail.co.th</div></td></tr><tr><td style="font-weight:bold;vertical-align:top;">first_name</td><td style="vertical-align:top;">:</td><td><div>Pathompong</div></td></tr><tr><td style="font-weight:bold;vertical-align:top;">id</td><td style="vertical-align:top;">:</td><td><div>9L</div></td></tr><tr><td style="font-weight:bold;vertical-align:top;">last_name</td><td style="vertical-align:top;">:</td><td><div>Sin-ngam</div></td></tr><tr><td style="font-weight:bold;vertical-align:top;">profile_picture</td><td style="vertical-align:top;">:</td><td><div>auth_user.profile_picture.99f5efe009e8af2c.486f6c6c2e6a7067.jpg</div></td></tr><tr><td style="font-weight:bold;vertical-align:top;">registration_id</td><td style="vertical-align:top;">:</td><td><div></div></td></tr><tr><td style="font-weight:bold;vertical-align:top;">registration_key</td><td style="vertical-align:top;">:</td><td><div></div></td></tr><tr><td style="font-weight:bold;vertical-align:top;">reset_password_key</td><td style="vertical-align:top;">:</td><td><div></div></td></tr><tr><td style="font-weight:bold;vertical-align:top;">role</td><td style="vertical-align:top;">:</td><td><div>student</div></td></tr><tr><td style="font-weight:bold;vertical-align:top;">student_id</td><td style="vertical-align:top;">:</td><td><div>59340500032</div></td></tr><tr><td style="font-weight:bold;vertical-align:top;">username</td><td style="vertical-align:top;">:</td><td><div>59340500032</div></td></tr></table></div></td></tr><tr><td style="font-weight:bold;vertical-align:top;">user_groups</td><td style="vertical-align:top;">:</td><td><div><table><tr><td style="font-weight:bold;vertical-align:top;">8</td><td style="vertical-align:top;">:</td><td><div>user_9</div></td></tr></table></div></td></tr></table></div></td></tr><tr><td style="font-weight:bold;vertical-align:top;">flash</td><td style="vertical-align:top;">:</td><td><div>None</div></td></tr><tr><td style="font-weight:bold;vertical-align:top;">last_orderby</td><td style="vertical-align:top;">:</td><td><div>None</div></td></tr><tr><td style="font-weight:bold;vertical-align:top;">last_query</td><td style="vertical-align:top;">:</td><td><div>db.images.id&gt;0</div></td></tr></table></div>'
tRp118
sS'etype'
p119
S"<type 'exceptions.NameError'>"
p120
sS'date'
p121
S'Tue Oct 17 01:05:19 2017'
p122
sS'response'
p123
g59
(S's\x9f\x1e\x00\x00<div><table><tr><td style="font-weight:bold;vertical-align:top;">body</td><td style="vertical-align:top;">:</td><td><div>&lt;cStringIO.StringO object at 0x03FB74E0&gt;</div></td></tr><tr><td style="font-weight:bold;vertical-align:top;">cookies</td><td style="vertical-align:top;">:</td><td><div><table><tr><td style="font-weight:bold;vertical-align:top;">session_id_welcome</td><td style="vertical-align:top;">:</td><td><div>127.0.0.1-7f33bcc5-f40e-4978-9057-3fa3401a97cd<table><tr><td style="font-weight:bold;vertical-align:top;">comment</td><td style="vertical-align:top;">:</td><td><div></div></td></tr><tr><td style="font-weight:bold;vertical-align:top;">domain</td><td style="vertical-align:top;">:</td><td><div></div></td></tr><tr><td style="font-weight:bold;vertical-align:top;">expires</td><td style="vertical-align:top;">:</td><td><div></div></td></tr><tr><td style="font-weight:bold;vertical-align:top;">httponly</td><td style="vertical-align:top;">:</td><td><div></div></td></tr><tr><td style="font-weight:bold;vertical-align:top;">max-age</td><td style="vertical-align:top;">:</td><td><div></div></td></tr><tr><td style="font-weight:bold;vertical-align:top;">path</td><td style="vertical-align:top;">:</td><td><div>/</div></td></tr><tr><td style="font-weight:bold;vertical-align:top;">secure</td><td style="vertical-align:top;">:</td><td><div></div></td></tr><tr><td style="font-weight:bold;vertical-align:top;">version</td><td style="vertical-align:top;">:</td><td><div></div></td></tr></table></div></td></tr></table></div></td></tr><tr><td style="font-weight:bold;vertical-align:top;">delimiters</td><td style="vertical-align:top;">:</td><td><div><table><tr><td><div>{{</div></td></tr><tr><td><div>}}</div></td></tr></table></div></td></tr><tr><td style="font-weight:bold;vertical-align:top;">files</td><td style="vertical-align:top;">:</td><td><div><table><tr><td><div>/welcome/static/js/jquery.js</div></td></tr><tr><td><div>/welcome/static/css/calendar.css</div></td></tr><tr><td><div>/welcome/static/js/calendar.js</div></td></tr><tr><td><div>/welcome/static/js/web2py.js</div></td></tr></table></div></td></tr><tr><td style="font-weight:bold;vertical-align:top;">flash</td><td style="vertical-align:top;">:</td><td><div>Hello World</div></td></tr><tr><td style="font-weight:bold;vertical-align:top;">form_label_separator</td><td style="vertical-align:top;">:</td><td><div></div></td></tr><tr><td style="font-weight:bold;vertical-align:top;">formstyle</td><td style="vertical-align:top;">:</td><td><div>bootstrap3_inline</div></td></tr><tr><td style="font-weight:bold;vertical-align:top;">generic_patterns</td><td style="vertical-align:top;">:</td><td><div><table><tr><td><div>*</div></td></tr></table></div></td></tr><tr><td style="font-weight:bold;vertical-align:top;">google_analytics_id</td><td style="vertical-align:top;">:</td><td><div>None</div></td></tr><tr><td style="font-weight:bold;vertical-align:top;">headers</td><td style="vertical-align:top;">:</td><td><div><table><tr><td style="font-weight:bold;vertical-align:top;">X-Powered-By</td><td style="vertical-align:top;">:</td><td><div>web2py</div></td></tr></table></div></td></tr><tr><td style="font-weight:bold;vertical-align:top;">logo</td><td style="vertical-align:top;">:</td><td><div><a class="navbar-brand" href="http://www.web2py.com/" id="web2py-logo"><b>web<span>2</span>py</b>&trade;&nbsp;</a></div></td></tr><tr><td style="font-weight:bold;vertical-align:top;">menu</td><td style="vertical-align:top;">:</td><td><div><table><tr><td><div><table><tr><td><div>Home</div></td></tr><tr><td><div>False</div></td></tr><tr><td><div>/welcome/default/index</div></td></tr><tr><td><div><table></table></div></td></tr></table></div></td></tr></table></div></td></tr><tr><td style="font-weight:bold;vertical-align:top;">meta</td><td style="vertical-align:top;">:</td><td><div><table><tr><td style="font-weight:bold;vertical-align:top;">author</td><td style="vertical-align:top;">:</td><td><div>Your Name &lt;you@example.com&gt;</div></td></tr><tr><td style="font-weight:bold;vertical-align:top;">description</td><td style="vertical-align:top;">:</td><td><div>a cool new app</div></td></tr><tr><td style="font-weight:bold;vertical-align:top;">generator</td><td style="vertical-align:top;">:</td><td><div>Web2py Web Framework</div></td></tr><tr><td style="font-weight:bold;vertical-align:top;">keywords</td><td style="vertical-align:top;">:</td><td><div><table><tr><td><div>web2py</div></td></tr><tr><td><div>python</div></td></tr><tr><td><div>framework</div></td></tr></table></div></td></tr></table></div></td></tr><tr><td style="font-weight:bold;vertical-align:top;">models_to_run</td><td style="vertical-align:top;">:</td><td><div><table><tr><td><div>^\\w+\\.py$</div></td></tr><tr><td><div>^default/\\w+\\.py$</div></td></tr><tr><td><div>^default/index/\\w+\\.py$</div></td></tr></table></div></td></tr><tr><td style="font-weight:bold;vertical-align:top;">postprocessing</td><td style="vertical-align:top;">:</td><td><div><table></table></div></td></tr><tr><td style="font-weight:bold;vertical-align:top;">session_client</td><td style="vertical-align:top;">:</td><td><div>127.0.0.1</div></td></tr><tr><td style="font-weight:bold;vertical-align:top;">session_cookie_compression_level</td><td style="vertical-align:top;">:</td><td><div>None</div></td></tr><tr><td style="font-weight:bold;vertical-align:top;">session_cookie_expires</td><td style="vertical-align:top;">:</td><td><div>None</div></td></tr><tr><td style="font-weight:bold;vertical-align:top;">session_data_name</td><td style="vertical-align:top;">:</td><td><div>session_data_welcome</div></td></tr><tr><td style="font-weight:bold;vertical-align:top;">session_file</td><td style="vertical-align:top;">:</td><td><div>&lt;open file &#x27;C:\\\\Users\\\\asus\\\\Downloads\\\\web2py_win\\\\web2py\\\\applications\\\\welcome\\\\sessions\\\\1df\\\\0e9\\\\127.0.0.1-7f33bcc5-f40e-4978-9057-3fa3401a97cd&#x27;, mode &#x27;rb+&#x27; at 0x041F6020&gt;</div></td></tr><tr><td style="font-weight:bold;vertical-align:top;">session_filename</td><td style="vertical-align:top;">:</td><td><div>C:\\Users\\asus\\Downloads\\web2py_win\\web2py\\applications\\welcome\\sessions\\127.0.0.1-7f33bcc5-f40e-4978-9057-3fa3401a97cd</div></td></tr><tr><td style="font-weight:bold;vertical-align:top;">session_hash</td><td style="vertical-align:top;">:</td><td><div>c9dd90b64874da15e9f302a5a00199d1</div></td></tr><tr><td style="font-weight:bold;vertical-align:top;">session_id</td><td style="vertical-align:top;">:</td><td><div>127.0.0.1-7f33bcc5-f40e-4978-9057-3fa3401a97cd</div></td></tr><tr><td style="font-weight:bold;vertical-align:top;">session_id_name</td><td style="vertical-align:top;">:</td><td><div>session_id_welcome</div></td></tr><tr><td style="font-weight:bold;vertical-align:top;">session_locked</td><td style="vertical-align:top;">:</td><td><div>True</div></td></tr><tr><td style="font-weight:bold;vertical-align:top;">session_masterapp</td><td style="vertical-align:top;">:</td><td><div>welcome</div></td></tr><tr><td style="font-weight:bold;vertical-align:top;">session_new</td><td style="vertical-align:top;">:</td><td><div>False</div></td></tr><tr><td style="font-weight:bold;vertical-align:top;">session_storage_type</td><td style="vertical-align:top;">:</td><td><div>file</div></td></tr><tr><td style="font-weight:bold;vertical-align:top;">status</td><td style="vertical-align:top;">:</td><td><div>200</div></td></tr><tr><td style="font-weight:bold;vertical-align:top;">subtitle</td><td style="vertical-align:top;">:</td><td><div></div></td></tr><tr><td style="font-weight:bold;vertical-align:top;">title</td><td style="vertical-align:top;">:</td><td><div>Welcome</div></td></tr><tr><td style="font-weight:bold;vertical-align:top;">view</td><td style="vertical-align:top;">:</td><td><div>default/index.html</div></td></tr></table></div>'
tRp124
sS'locals'
p125
(dp126
S'Service'
p127
S"<class 'gluon.tools.Service'>"
p128
sS'PY2'
p129
S'True'
p130
sS'OBJECT'
p131
S"<class 'gluon.html.OBJECT'>"
p132
sS'SQLDB'
p133
S"<class 'pydal.base.DAL'>"
p134
sg117
S"<Storage {'last_query': 'db.images.id>0', '_form...gin]': ['6dfb08fc-4b75-4436-a304-260198d3085d']}>"
p135
sS'LINK'
p136
S"<class 'gluon.html.LINK'>"
p137
sS'BR'
p138
S"<class 'gluon.html.BR'>"
p139
sS'local_import'
p140
S'<function <lambda>>'
p141
sS'OPTGROUP'
p142
S"<class 'gluon.html.OPTGROUP'>"
p143
sS'__package__'
p144
S'None'
p145
sS'PRE'
p146
S"<class 'gluon.html.PRE'>"
p147
sS'IS_INT_IN_RANGE'
p148
S"<class 'gluon.validators.IS_INT_IN_RANGE'>"
p149
sS'to_bytes'
p150
S'<function to_bytes>'
p151
sS'left_sidebar_enabled'
p152
S'False'
p153
sS'IS_LOWER'
p154
S"<class 'gluon.validators.IS_LOWER'>"
p155
sS'IS_STRONG'
p156
S"<class 'gluon.validators.IS_STRONG'>"
p157
sS'cache'
p158
S'<gluon.cache.Cache object>'
p159
sS'IS_IN_DB'
p160
S"<class 'gluon.validators.IS_IN_DB'>"
p161
sS'TAG'
p162
S'<gluon.html.__TAG__ object>'
p163
sS'SQLField'
p164
S"<class 'pydal.objects.Field'>"
p165
sS'BODY'
p166
S"<class 'gluon.html.BODY'>"
p167
sS'IS_DATE_IN_RANGE'
p168
S"<class 'gluon.validators.IS_DATE_IN_RANGE'>"
p169
sS'IFRAME'
p170
S"<class 'gluon.html.IFRAME'>"
p171
sS'URL'
p172
S'<function URL>'
p173
sS'__file__'
p174
S"r'C:\\Users\\asus\\Downloads\\web2py_win\\web2py\\applications\\welcome\\views\\default/index.html'"
p175
sS'db'
p176
S'<DAL uri="sqlite://storage.sqlite">'
p177
sS'auth'
p178
S'<gluon.tools.Auth object>'
p179
sS'P'
S"<class 'gluon.html.P'>"
p180
sS'TFOOT'
p181
S"<class 'gluon.html.TFOOT'>"
p182
sS'iteritems'
p183
S'<function <lambda>>'
p184
sS'XHTML'
p185
S"<class 'gluon.html.XHTML'>"
p186
sS'ON'
p187
g130
sS'OL'
p188
S"<class 'gluon.html.OL'>"
p189
sS'TEXTAREA'
p190
S"<class 'gluon.html.TEXTAREA'>"
p191
sS'MENU'
p192
S"<class 'gluon.html.MENU'>"
p193
sS'IS_IMAGE'
p194
S"<class 'gluon.validators.IS_IMAGE'>"
p195
sS'EM'
p196
S"<class 'gluon.html.EM'>"
p197
sS'CODE'
p198
S"<class 'gluon.html.CODE'>"
p199
sS'HTTP'
p200
S"<class 'gluon.http.HTTP'>"
p201
sS'HR'
p202
S"<class 'gluon.html.HR'>"
p203
sS'IS_DATETIME'
p204
S"<class 'gluon.validators.IS_DATETIME'>"
p205
sS'reduce'
p206
S'<built-in function reduce>'
p207
sS'STYLE'
p208
S"<class 'gluon.html.STYLE'>"
p209
sS'LABEL'
p210
S"<class 'gluon.html.LABEL'>"
p211
sS'CLEANUP'
p212
S"<class 'gluon.validators.CLEANUP'>"
p213
sS'plugins'
p214
S'<gluon.tools.PluginManager object>'
p215
sS'SELECT'
p216
S"<class 'gluon.html.SELECT'>"
p217
sS'CENTER'
p218
S"<class 'gluon.html.CENTER'>"
p219
sS'custom_auth_table'
p220
S'<Table auth_user (id, profile_picture, username,...password_key, registration_id, role, Department)>'
p221
sS'Auth'
p222
S"<class 'gluon.tools.Auth'>"
p223
sS'DEVELOPMENT_MENU'
p224
S'0'
sS'__builtins__'
p225
S"{'ArithmeticError': <type 'exceptions.ArithmeticError'>, 'AssertionError': <type 'exceptions.AssertionError'>, 'AttributeError': <type 'exceptions.AttributeError'>, 'BaseException': <type 'exceptions.BaseException'>, 'BufferError': <type 'exceptions.BufferError'>, 'BytesWarning': <type 'exceptions.BytesWarning'>, 'DeprecationWarning': <type 'exceptions.DeprecationWarning'>, 'EOFError': <type 'exceptions.EOFError'>, 'Ellipsis': Ellipsis, 'EnvironmentError': <type 'exceptions.EnvironmentError'>, ...}"
p226
sS'HTML'
p227
S"<class 'gluon.html.HTML'>"
p228
sS'SQLFORM'
p229
S"<class 'gluon.sqlhtml.SQLFORM'>"
p230
sS'LOAD'
p231
S'<function LOAD>'
p232
sS'redirect'
p233
S'<function redirect>'
p234
sS'FIELDSET'
p235
S"<class 'gluon.html.FIELDSET'>"
p236
sS'IS_EQUAL_TO'
p237
S"<class 'gluon.validators.IS_EQUAL_TO'>"
p238
sS'embed64'
p239
S'<function embed64>'
p240
sS'IS_LIST_OF'
p241
S"<class 'gluon.validators.IS_LIST_OF'>"
p242
sS'INPUT'
p243
S"<class 'gluon.html.INPUT'>"
p244
sS'EMBED'
p245
S"<class 'gluon.html.EMBED'>"
p246
sS'_'
S'<function _>'
p247
sS'myconf'
p248
S"{'forms': {'formstyle': 'bootstrap3_inline', 'se...': {'names': 'localhost:*, 127.0.0.1:*, *:*, *'}}"
p249
sS'H2'
p250
S"<class 'gluon.html.H2'>"
p251
sS'H3'
p252
S"<class 'gluon.html.H3'>"
p253
sS'AppConfig'
p254
S'<function AppConfig>'
p255
sS'H1'
p256
S"<class 'gluon.html.H1'>"
p257
sS'H6'
p258
S"<class 'gluon.html.H6'>"
p259
sS'H4'
p260
S"<class 'gluon.html.H4'>"
p261
sS'H5'
p262
S"<class 'gluon.html.H5'>"
p263
sS'UL'
p264
S"<class 'gluon.html.UL'>"
p265
sS'IS_UPPER'
p266
S"<class 'gluon.validators.IS_UPPER'>"
p267
sS'xmlescape'
p268
S'<function xmlescape>'
p269
sS'IS_TIME'
p270
S"<class 'gluon.validators.IS_TIME'>"
p271
sS'OPTION'
p272
S"<class 'gluon.html.OPTION'>"
p273
sS'TITLE'
p274
S"<class 'gluon.html.TITLE'>"
p275
sS'CRYPT'
p276
S"<class 'gluon.validators.CRYPT'>"
p277
sS'IS_EMPTY_OR'
p278
S"<class 'gluon.validators.IS_EMPTY_OR'>"
p279
sS'MARKMIN'
p280
S"<class 'gluon.html.MARKMIN'>"
p281
sS'__name__'
p282
S"'__restricted__'"
p283
sg20
S"<lazyT 'Welcome to web2py!'>"
p284
sS'STRONG'
p285
S"<class 'gluon.html.STRONG'>"
p286
sS'COL'
p287
S"<class 'gluon.html.COL'>"
p288
sS'mc1'
p289
S"'col-md-9'"
p290
sS'mc0'
p291
S"'col-md-12'"
p292
sS'service'
p293
S'<gluon.tools.Service object>'
p294
sS'SCRIPT'
p295
S"<class 'gluon.html.SCRIPT'>"
p296
sS'TABLE'
p297
S"<class 'gluon.html.TABLE'>"
p298
sS'IS_IPV4'
p299
S"<class 'gluon.validators.IS_IPV4'>"
p300
sS'IS_LENGTH'
p301
S"<class 'gluon.validators.IS_LENGTH'>"
p302
sS'IS_IPV6'
p303
S"<class 'gluon.validators.IS_IPV6'>"
p304
sS'XML'
p305
S"<class 'gluon.html.XML'>"
p306
sS'B'
S"<class 'gluon.html.B'>"
p307
sS'IMG'
p308
S"<class 'gluon.html.IMG'>"
p309
sS'SQLTABLE'
p310
S"<class 'gluon.sqlhtml.SQLTABLE'>"
p311
sS'IS_MATCH'
p312
S"<class 'gluon.validators.IS_MATCH'>"
p313
sS'IS_ALPHANUMERIC'
p314
S"<class 'gluon.validators.IS_ALPHANUMERIC'>"
p315
sS'SPAN'
p316
S"<class 'gluon.html.SPAN'>"
p317
sS'IS_JSON'
p318
S"<class 'gluon.validators.IS_JSON'>"
p319
sS'IS_IPADDRESS'
p320
S"<class 'gluon.validators.IS_IPADDRESS'>"
p321
sS'IS_SLUG'
p322
S"<class 'gluon.validators.IS_SLUG'>"
p323
sS'BEAUTIFY'
p324
S"<class 'gluon.html.BEAUTIFY'>"
p325
sS'META'
p326
S"<class 'gluon.html.META'>"
p327
sS'BUTTON'
p328
S"<class 'gluon.html.BUTTON'>"
p329
sS'IS_DATE'
p330
S"<class 'gluon.validators.IS_DATE'>"
p331
sS'IS_EMAIL'
p332
S"<class 'gluon.validators.IS_EMAIL'>"
p333
sS'middle_column'
p334
S"'col-md-12'"
p335
sS'IS_NOT_EMPTY'
p336
S"<class 'gluon.validators.IS_NOT_EMPTY'>"
p337
sS'xrange'
p338
S"<type 'xrange'>"
p339
sS'TBODY'
p340
S"<class 'gluon.html.TBODY'>"
p341
sS'CAT'
p342
S"<class 'gluon.html.CAT'>"
p343
sS'Field'
p344
S"<class 'pydal.objects.Field'>"
p345
sS'mc2'
p346
S"'col-md-6'"
p347
sS'IS_LIST_OF_EMAILS'
p348
S"<class 'gluon.validators.IS_LIST_OF_EMAILS'>"
p349
sg58
S"<Storage {'_vars': None, 'function': 'index', 'c...s\\\\web2py_win\\\\web2py\\\\applications\\\\welcome\\\\'}>"
p350
sS'DIV'
p351
S"<class 'gluon.html.DIV'>"
p352
sS'LEGEND'
p353
S"<class 'gluon.html.LEGEND'>"
p354
sS'to_native'
p355
S'<function to_native>'
p356
sS'COLGROUP'
p357
S"<class 'gluon.html.COLGROUP'>"
p358
sS'DAL'
p359
S"<class 'pydal.base.DAL'>"
p360
sS'ASSIGNJS'
p361
S'<function ASSIGNJS>'
p362
sS'TR'
p363
S"<class 'gluon.html.TR'>"
p364
sS'LI'
p365
S"<class 'gluon.html.LI'>"
p366
sS'right_sidebar_enabled'
p367
g153
sS'TH'
p368
S"<class 'gluon.html.TH'>"
p369
sS'TD'
p370
S"<class 'gluon.html.TD'>"
p371
sS'PluginManager'
p372
S"<class 'gluon.tools.PluginManager'>"
p373
sS'IS_URL'
p374
S"<class 'gluon.validators.IS_URL'>"
p375
sS'A'
S"<class 'gluon.html.A'>"
p376
sS'HEAD'
p377
S"<class 'gluon.html.HEAD'>"
p378
sS'IS_DATETIME_IN_RANGE'
p379
S"<class 'gluon.validators.IS_DATETIME_IN_RANGE'>"
p380
sS'FORM'
p381
S"<class 'gluon.html.FORM'>"
p382
sS'I'
S"<class 'gluon.html.I'>"
p383
sS'IS_NOT_IN_DB'
p384
S"<class 'gluon.validators.IS_NOT_IN_DB'>"
p385
sg123
S"<Storage {'body': <cStringIO.StringO object at 0...a> at 0x046E6AF0>, 'view': 'default/index.html'}>"
p386
sS'THEAD'
p387
S"<class 'gluon.html.THEAD'>"
p388
sS'ANY_OF'
p389
S"<class 'gluon.validators.ANY_OF'>"
p390
sS'IS_NULL_OR'
p391
S"<class 'gluon.validators.IS_EMPTY_OR'>"
p392
sS'IS_FLOAT_IN_RANGE'
p393
S"<class 'gluon.validators.IS_FLOAT_IN_RANGE'>"
p394
sS'IS_EXPR'
p395
S"<class 'gluon.validators.IS_EXPR'>"
p396
sS'T'
S'<gluon.languages.translator object>'
p397
sS'IS_IN_SET'
p398
S"<class 'gluon.validators.IS_IN_SET'>"
p399
sS'IS_UPLOAD_FILENAME'
p400
S"<class 'gluon.validators.IS_UPLOAD_FILENAME'>"
p401
sS'TT'
p402
S"<class 'gluon.html.TT'>"
p403
sS'IS_DECIMAL_IN_RANGE'
p404
S"<class 'gluon.validators.IS_DECIMAL_IN_RANGE'>"
p405
sssS'traceback'
p406
S'Traceback (most recent call last):\n  File "C:\\Users\\asus\\Downloads\\web2py_win\\web2py\\gluon\\restricted.py", line 219, in restricted\n    exec(ccode, environment)\n  File "C:\\Users\\asus\\Downloads\\web2py_win\\web2py\\applications\\welcome\\views\\default/index.html", line 73, in <module>\nNameError: name \'picture_name\' is not defined\n'
p407
s.